

Microchip MPLAB XC8 Assembler V2.10 build 88905656 
                                                                                               Fri Jun 19 10:03:06 2020

Microchip MPLAB XC8 C Compiler v2.10 (Free license) build 20190730164152 Og1 
     1                           	processor	16F877A
     2                           	opt	pw 120
     3                           	opt	flic
     4                           	psect	idataBANK1,global,class=CODE,delta=2
     5                           	psect	strings,global,class=STRING,delta=2
     6                           	psect	cinit,global,class=CODE,merge=1,delta=2
     7                           	psect	bssCOMMON,global,class=COMMON,space=1,delta=1
     8                           	psect	bssBANK0,global,class=BANK0,space=1,delta=1
     9                           	psect	bssBANK1,global,class=BANK1,space=1,delta=1
    10                           	psect	dataBANK1,global,class=BANK1,space=1,delta=1
    11                           	psect	bssBANK3,global,class=BANK3,space=1,delta=1
    12                           	psect	bssBANK2,global,class=BANK2,space=1,delta=1
    13                           	psect	inittext,global,class=CODE,delta=2
    14                           	psect	clrtext,global,class=CODE,delta=2
    15                           	psect	cstackBANK2,global,class=BANK2,space=1,delta=1
    16                           	psect	cstackCOMMON,global,class=COMMON,space=1,delta=1
    17                           	psect	cstackBANK0,global,class=BANK0,space=1,delta=1
    18                           	psect	maintext,global,class=CODE,split=1,delta=2
    19                           	psect	text1,local,class=CODE,merge=1,delta=2
    20                           	psect	text2,local,class=CODE,merge=1,delta=2
    21                           	psect	text3,local,class=CODE,merge=1,delta=2
    22                           	psect	text4,local,class=CODE,merge=1,delta=2
    23                           	psect	text5,local,class=CODE,merge=1,delta=2
    24                           	psect	text6,local,class=CODE,merge=1,delta=2,group=1
    25                           	psect	text7,local,class=CODE,merge=1,delta=2
    26                           	psect	text8,local,class=CODE,merge=1,delta=2,group=1
    27                           	psect	text9,local,class=CODE,merge=1,delta=2
    28                           	psect	text10,local,class=CODE,merge=1,delta=2,group=1
    29                           	psect	text11,local,class=CODE,merge=1,delta=2
    30                           	psect	text12,local,class=CODE,merge=1,delta=2
    31                           	psect	text13,local,class=CODE,merge=1,delta=2
    32                           	psect	text14,local,class=CODE,merge=1,delta=2
    33                           	psect	text15,local,class=CODE,merge=1,delta=2,group=1
    34                           	psect	text16,local,class=CODE,merge=1,delta=2,group=1
    35                           	psect	text17,local,class=CODE,merge=1,delta=2
    36                           	psect	text18,local,class=CODE,merge=1,delta=2
    37                           	psect	intentry,global,class=CODE,delta=2
    38                           	psect	text19,local,class=CODE,merge=1,delta=2
    39                           	psect	text20,local,class=CODE,merge=1,delta=2
    40                           	dabs	1,0x7E,2
    41  0000                     
    42                           ; Version 2.10
    43                           ; Generated 31/07/2019 GMT
    44                           ; 
    45                           ; Copyright © 2019, Microchip Technology Inc. and its subsidiaries ("Microchip")
    46                           ; All rights reserved.
    47                           ; 
    48                           ; This software is developed by Microchip Technology Inc. and its subsidiaries ("Microch
      +                          ip").
    49                           ; 
    50                           ; Redistribution and use in source and binary forms, with or without modification, are
    51                           ; permitted provided that the following conditions are met:
    52                           ; 
    53                           ;     1. Redistributions of source code must retain the above copyright notice, this lis
      +                          t of
    54                           ;        conditions and the following disclaimer.
    55                           ; 
    56                           ;     2. Redistributions in binary form must reproduce the above copyright notice, this 
      +                          list
    57                           ;        of conditions and the following disclaimer in the documentation and/or other
    58                           ;        materials provided with the distribution.
    59                           ; 
    60                           ;     3. Microchip's name may not be used to endorse or promote products derived from th
      +                          is
    61                           ;        software without specific prior written permission.
    62                           ; 
    63                           ; THIS SOFTWARE IS PROVIDED BY MICROCHIP "AS IS" AND ANY EXPRESS OR IMPLIED WARRANTIES,
    64                           ; INCLUDING, BUT NOT LIMITED TO, THE IMPLIED WARRANTIES OF MERCHANTABILITY AND FITNESS F
      +                          OR
    65                           ; PURPOSE ARE DISCLAIMED.  IN NO EVENT SHALL MICROCHIP BE LIABLE FOR ANY DIRECT, INDIREC
      +                          T,
    66                           ; INCIDENTAL, SPECIAL, EXEMPLARY, OR CONSEQUENTIAL DAMAGES (INCLUDING BUT NOT LIMITED TO
    67                           ; PROCUREMENT OF SUBSTITUTE GOODS OR SERVICES; LOSS OF USE, DATA OR PROFITS; OR BUSINESS
    68                           ; INTERRUPTION) HOWSOEVER CAUSED AND ON ANY THEORY OF LIABILITY, WHETHER IN CONTRACT, ST
      +                          RICT
    69                           ; LIABILITY, OR TORT (INCLUDING NEGLIGENCE OR OTHERWISE) ARISING IN ANY WAY OUT OF THE U
      +                          SE OF
    70                           ; THIS SOFTWARE, EVEN IF ADVISED OF THE POSSIBILITY OF SUCH DAMAGE.
    71                           ; 
    72                           ; 
    73                           ; Code-generator required, PIC16F877A Definitions
    74                           ; 
    75                           ; SFR Addresses
    76  0000                     	;# 
    77  0001                     	;# 
    78  0002                     	;# 
    79  0003                     	;# 
    80  0004                     	;# 
    81  0005                     	;# 
    82  0006                     	;# 
    83  0007                     	;# 
    84  0008                     	;# 
    85  0009                     	;# 
    86  000A                     	;# 
    87  000B                     	;# 
    88  000C                     	;# 
    89  000D                     	;# 
    90  000E                     	;# 
    91  000E                     	;# 
    92  000F                     	;# 
    93  0010                     	;# 
    94  0011                     	;# 
    95  0012                     	;# 
    96  0013                     	;# 
    97  0014                     	;# 
    98  0015                     	;# 
    99  0015                     	;# 
   100  0016                     	;# 
   101  0017                     	;# 
   102  0018                     	;# 
   103  0019                     	;# 
   104  001A                     	;# 
   105  001B                     	;# 
   106  001B                     	;# 
   107  001C                     	;# 
   108  001D                     	;# 
   109  001E                     	;# 
   110  001F                     	;# 
   111  0081                     	;# 
   112  0085                     	;# 
   113  0086                     	;# 
   114  0087                     	;# 
   115  0088                     	;# 
   116  0089                     	;# 
   117  008C                     	;# 
   118  008D                     	;# 
   119  008E                     	;# 
   120  0091                     	;# 
   121  0092                     	;# 
   122  0093                     	;# 
   123  0094                     	;# 
   124  0098                     	;# 
   125  0099                     	;# 
   126  009C                     	;# 
   127  009D                     	;# 
   128  009E                     	;# 
   129  009F                     	;# 
   130  010C                     	;# 
   131  010D                     	;# 
   132  010E                     	;# 
   133  010F                     	;# 
   134  018C                     	;# 
   135  018D                     	;# 
   136  0000                     	;# 
   137  0001                     	;# 
   138  0002                     	;# 
   139  0003                     	;# 
   140  0004                     	;# 
   141  0005                     	;# 
   142  0006                     	;# 
   143  0007                     	;# 
   144  0008                     	;# 
   145  0009                     	;# 
   146  000A                     	;# 
   147  000B                     	;# 
   148  000C                     	;# 
   149  000D                     	;# 
   150  000E                     	;# 
   151  000E                     	;# 
   152  000F                     	;# 
   153  0010                     	;# 
   154  0011                     	;# 
   155  0012                     	;# 
   156  0013                     	;# 
   157  0014                     	;# 
   158  0015                     	;# 
   159  0015                     	;# 
   160  0016                     	;# 
   161  0017                     	;# 
   162  0018                     	;# 
   163  0019                     	;# 
   164  001A                     	;# 
   165  001B                     	;# 
   166  001B                     	;# 
   167  001C                     	;# 
   168  001D                     	;# 
   169  001E                     	;# 
   170  001F                     	;# 
   171  0081                     	;# 
   172  0085                     	;# 
   173  0086                     	;# 
   174  0087                     	;# 
   175  0088                     	;# 
   176  0089                     	;# 
   177  008C                     	;# 
   178  008D                     	;# 
   179  008E                     	;# 
   180  0091                     	;# 
   181  0092                     	;# 
   182  0093                     	;# 
   183  0094                     	;# 
   184  0098                     	;# 
   185  0099                     	;# 
   186  009C                     	;# 
   187  009D                     	;# 
   188  009E                     	;# 
   189  009F                     	;# 
   190  010C                     	;# 
   191  010D                     	;# 
   192  010E                     	;# 
   193  010F                     	;# 
   194  018C                     	;# 
   195  018D                     	;# 
   196                           
   197                           	psect	idataBANK1
   198  07DD                     __pidataBANK1:	
   199                           
   200                           ;initializer for _Semafori
   201  07DD  34C3               	retlw	low (_s0| 0)
   202  07DE  3400               	retlw	high (_s0| 0)
   203  07DF  34B7               	retlw	low (_s1| 0)
   204  07E0  3400               	retlw	high (_s1| 0)
   205  07E1  34E4               	retlw	low (_s2| (0+256))
   206  07E2  3401               	retlw	high (_s2| (0+256))
   207  07E3  34D8               	retlw	low (_s3| (0+256))
   208  07E4  3401               	retlw	high (_s3| (0+256))
   209  07E5  34CC               	retlw	low (_s4| (0+256))
   210  07E6  3401               	retlw	high (_s4| (0+256))
   211  07E7  34C0               	retlw	low (_s5| (0+256))
   212  07E8  3401               	retlw	high (_s5| (0+256))
   213  07E9  34B4               	retlw	low (_s6| (0+256))
   214  07EA  3401               	retlw	high (_s6| (0+256))
   215  07EB  34A8               	retlw	low (_s7| (0+256))
   216  07EC  3401               	retlw	high (_s7| (0+256))
   217  07ED  349C               	retlw	low (_s8| (0+256))
   218  07EE  3401               	retlw	high (_s8| (0+256))
   219  07EF  3490               	retlw	low (_s9| (0+256))
   220  07F0  3401               	retlw	high (_s9| (0+256))
   221  07F1  344C               	retlw	low (_s10| (0+256))
   222  07F2  3401               	retlw	high (_s10| (0+256))
   223  07F3  3440               	retlw	low (_s11| (0+256))
   224  07F4  3401               	retlw	high (_s11| (0+256))
   225  07F5  3434               	retlw	low (_s12| (0+256))
   226  07F6  3401               	retlw	high (_s12| (0+256))
   227  07F7  3428               	retlw	low (_s13| (0+256))
   228  07F8  3401               	retlw	high (_s13| (0+256))
   229  07F9  341C               	retlw	low (_s14| (0+256))
   230  07FA  3401               	retlw	high (_s14| (0+256))
   231  07FB  3410               	retlw	low (_s15| (0+256))
   232  07FC  3401               	retlw	high (_s15| (0+256))
   233                           
   234                           	psect	strings
   235  0800                     __pstrings:	
   236  0800                     stringtab:	
   237  0800                     __stringtab:	
   238  0800                     stringcode:	
   239                           ;	String table - string pointers are 1 byte each
   240                           
   241  0800                     stringdir:	
   242  0800  3008               	movlw	high stringdir
   243  0801  008A               	movwf	10
   244  0802  0804               	movf	4,w
   245  0803  0A84               	incf	4,f
   246  0804  0782               	addwf	2,f
   247  0805                     __stringbase:	
   248  0805  3400               	retlw	0
   249  0806                     __end_of__stringtab:	
   250  0806                     _display:	
   251  0806  343F               	retlw	63
   252  0807  3406               	retlw	6
   253  0808  345B               	retlw	91
   254  0809  344F               	retlw	79
   255  080A  3466               	retlw	102
   256  080B  346D               	retlw	109
   257  080C  347D               	retlw	125
   258  080D  3407               	retlw	7
   259  080E  347F               	retlw	127
   260  080F  346F               	retlw	111
   261  0810  3400               	retlw	0
   262  0811                     __end_of_display:	
   263  0006                     _PORTBbits	set	6
   264  0008                     _PORTD	set	8
   265  0005                     _PORTAbits	set	5
   266  001A                     _RCREG	set	26
   267  0019                     _TXREG	set	25
   268  000B                     _INTCONbits	set	11
   269  0018                     _RCSTAbits	set	24
   270  001E                     _ADRESH	set	30
   271  001F                     _ADCON0	set	31
   272  000E                     _TMR1L	set	14
   273  000F                     _TMR1H	set	15
   274  0010                     _T1CON	set	16
   275  0001                     _TMR0	set	1
   276  000B                     _INTCON	set	11
   277  0060                     _TMR1IF	set	96
   278  005A                     _TMR0IF	set	90
   279  0065                     _RCIF	set	101
   280  0064                     _TXIF	set	100
   281  00FA                     _GO_nDONE	set	250
   282  008C                     _PIE1bits	set	140
   283  0099                     _SPBRG	set	153
   284  0098                     _TXSTAbits	set	152
   285  0087                     _TRISCbits	set	135
   286  009E                     _ADRESL	set	158
   287  009F                     _ADCON1	set	159
   288  0085                     _TRISA	set	133
   289  0081                     _OPTION_REG	set	129
   290  0089                     _TRISE	set	137
   291  0088                     _TRISD	set	136
   292  0087                     _TRISC	set	135
   293  0086                     _TRISB	set	134
   294                           
   295                           ; #config settings
   296  0000                     
   297                           	psect	cinit
   298  0011                     start_initialization:	
   299  0011                     __initialization:	
   300                           
   301                           ; Initialize objects allocated to BANK1
   302  0011  1383               	bcf	3,7	;select IRP bank0
   303  0012  30EF               	movlw	low (__pdataBANK1+32)
   304  0013  00FD               	movwf	btemp+-1
   305  0014  3007               	movlw	high __pidataBANK1
   306  0015  00FE               	movwf	btemp
   307  0016  30DD               	movlw	low __pidataBANK1
   308  0017  00FF               	movwf	btemp+1
   309  0018  30CF               	movlw	low __pdataBANK1
   310  0019  0084               	movwf	4
   311  001A  120A  158A  2445  120A  118A  	fcall	init_ram0
   312                           
   313                           ; Clear objects allocated to BANK3
   314  001F  1783               	bsf	3,7	;select IRP bank2
   315  0020  3090               	movlw	low __pbssBANK3
   316  0021  0084               	movwf	4
   317  0022  30F0               	movlw	low (__pbssBANK3+96)
   318  0023  120A  158A  2412  120A  118A  	fcall	clear_ram0
   319                           
   320                           ; Clear objects allocated to BANK2
   321  0028  3010               	movlw	low __pbssBANK2
   322  0029  0084               	movwf	4
   323  002A  3058               	movlw	low (__pbssBANK2+72)
   324  002B  120A  158A  2412  120A  118A  	fcall	clear_ram0
   325                           
   326                           ; Clear objects allocated to BANK1
   327  0030  1383               	bcf	3,7	;select IRP bank0
   328  0031  30A0               	movlw	low __pbssBANK1
   329  0032  0084               	movwf	4
   330  0033  30CF               	movlw	low (__pbssBANK1+47)
   331  0034  120A  158A  2412  120A  118A  	fcall	clear_ram0
   332                           
   333                           ; Clear objects allocated to BANK0
   334  0039  304D               	movlw	low __pbssBANK0
   335  003A  0084               	movwf	4
   336  003B  3064               	movlw	low (__pbssBANK0+23)
   337  003C  120A  158A  2412  120A  118A  	fcall	clear_ram0
   338                           
   339                           ; Clear objects allocated to COMMON
   340  0041  01F0               	clrf	__pbssCOMMON& (0+127)
   341  0042  01F1               	clrf	(__pbssCOMMON+1)& (0+127)
   342  0043  01F2               	clrf	(__pbssCOMMON+2)& (0+127)
   343  0044  01F3               	clrf	(__pbssCOMMON+3)& (0+127)
   344  0045  01F4               	clrf	(__pbssCOMMON+4)& (0+127)
   345  0046                     end_of_initialization:	
   346                           ;End of C runtime variable initialization code
   347                           
   348  0046                     __end_of__initialization:	
   349  0046  0183               	clrf	3
   350  0047  120A  118A  284A   	ljmp	_main	;jump to C main() function
   351                           
   352                           	psect	bssCOMMON
   353  0070                     __pbssCOMMON:	
   354  0070                     _count:	
   355  0070                     	ds	2
   356  0072                     _time:	
   357  0072                     	ds	1
   358  0073                     _comando:	
   359  0073                     	ds	1
   360  0074                     _count_lux:	
   361  0074                     	ds	1
   362                           
   363                           	psect	bssBANK0
   364  004D                     __pbssBANK0:	
   365  004D                     _car:	
   366  004D                     	ds	4
   367  0051                     _motorcycle:	
   368  0051                     	ds	4
   369  0055                     _n_semafori:	
   370  0055                     	ds	2
   371  0057                     _colorIndex:	
   372  0057                     	ds	1
   373  0058                     _timerReadFromGateway:	
   374  0058                     	ds	1
   375  0059                     _dataFromGatewayIndex:	
   376  0059                     	ds	1
   377  005A                     _countdown:	
   378  005A                     	ds	1
   379  005B                     _disp:	
   380  005B                     	ds	1
   381  005C                     _old_disp:	
   382  005C                     	ds	1
   383  005D                     _centinaia:	
   384  005D                     	ds	1
   385  005E                     _decine:	
   386  005E                     	ds	1
   387  005F                     _unita:	
   388  005F                     	ds	1
   389  0060                     _cycled:	
   390  0060                     	ds	1
   391  0061                     _secondPassed:	
   392  0061                     	ds	1
   393  0062                     _readGateway:	
   394  0062                     	ds	1
   395  0063                     _readGatewayDone:	
   396  0063                     	ds	1
   397                           
   398                           	psect	bssBANK1
   399  00A0                     __pbssBANK1:	
   400  00A0                     _dataFromGateway:	
   401  00A0                     	ds	15
   402  00AF                     _truck:	
   403  00AF                     	ds	4
   404  00B3                     _str:	
   405  00B3                     	ds	4
   406  00B7                     _s1:	
   407  00B7                     	ds	12
   408  00C3                     _s0:	
   409  00C3                     	ds	12
   410                           
   411                           	psect	dataBANK1
   412  00CF                     __pdataBANK1:	
   413  00CF                     _Semafori:	
   414  00CF                     	ds	32
   415                           
   416                           	psect	bssBANK3
   417  0190                     __pbssBANK3:	
   418  0190                     _s9:	
   419  0190                     	ds	12
   420  019C                     _s8:	
   421  019C                     	ds	12
   422  01A8                     _s7:	
   423  01A8                     	ds	12
   424  01B4                     _s6:	
   425  01B4                     	ds	12
   426  01C0                     _s5:	
   427  01C0                     	ds	12
   428  01CC                     _s4:	
   429  01CC                     	ds	12
   430  01D8                     _s3:	
   431  01D8                     	ds	12
   432  01E4                     _s2:	
   433  01E4                     	ds	12
   434                           
   435                           	psect	bssBANK2
   436  0110                     __pbssBANK2:	
   437  0110                     _s15:	
   438  0110                     	ds	12
   439  011C                     _s14:	
   440  011C                     	ds	12
   441  0128                     _s13:	
   442  0128                     	ds	12
   443  0134                     _s12:	
   444  0134                     	ds	12
   445  0140                     _s11:	
   446  0140                     	ds	12
   447  014C                     _s10:	
   448  014C                     	ds	12
   449                           
   450                           	psect	inittext
   451  0C41                     init_fetch0:	
   452                           ;	Called with low address in FSR and high address in W
   453                           
   454  0C41  087E               	movf	btemp,w
   455  0C42  008A               	movwf	10
   456  0C43  087F               	movf	btemp+1,w
   457  0C44  0082               	movwf	2
   458  0C45                     init_ram0:	
   459                           ;Called with:
   460                           ;	high address of idata address in btemp 
   461                           ;	low address of idata address in btemp+1 
   462                           ;	low address of data in FSR
   463                           ;	high address + 1 of data in btemp-1
   464                           
   465  0C45  120A  158A  2441  120A  158A  	fcall	init_fetch0
   466  0C4A  0080               	movwf	0
   467  0C4B  0A84               	incf	4,f
   468  0C4C  0804               	movf	4,w
   469  0C4D  067D               	xorwf	btemp+-1,w
   470  0C4E  1903               	btfsc	3,2
   471  0C4F  3400               	retlw	0
   472  0C50  0AFF               	incf	btemp+1,f
   473  0C51  1903               	btfsc	3,2
   474  0C52  0AFE               	incf	btemp,f
   475  0C53  2C45               	goto	init_ram0
   476                           
   477                           	psect	clrtext
   478  0C12                     clear_ram0:	
   479                           ;	Called with FSR containing the base address, and
   480                           ;	W with the last address+1
   481                           
   482  0C12  0064               	clrwdt	;clear the watchdog before getting into this loop
   483  0C13                     clrloop0:	
   484  0C13  0180               	clrf	0	;clear RAM location pointed to by FSR
   485  0C14  0A84               	incf	4,f	;increment pointer
   486  0C15  0604               	xorwf	4,w	;XOR with final address
   487  0C16  1903               	btfsc	3,2	;have we reached the end yet?
   488  0C17  3400               	retlw	0	;all done for this memory range, return
   489  0C18  0604               	xorwf	4,w	;XOR again to restore value
   490  0C19  2C13               	goto	clrloop0	;do the next byte
   491                           
   492                           	psect	cstackBANK2
   493  0158                     __pcstackBANK2:	
   494  0158                     main@index:	
   495                           
   496                           ; 2 bytes @ 0x0
   497  0158                     	ds	2
   498  015A                     main@colorId:	
   499                           
   500                           ; 2 bytes @ 0x2
   501  015A                     	ds	2
   502  015C                     main@semaforoId:	
   503                           
   504                           ; 2 bytes @ 0x4
   505  015C                     	ds	2
   506  015E                     main@temp:	
   507                           
   508                           ; 1 bytes @ 0x6
   509  015E                     	ds	1
   510  015F                     main@umidita:	
   511                           
   512                           ; 1 bytes @ 0x7
   513  015F                     	ds	1
   514  0160                     main@pressione:	
   515                           
   516                           ; 1 bytes @ 0x8
   517  0160                     	ds	1
   518  0161                     main@endCiclo:	
   519                           
   520                           ; 1 bytes @ 0x9
   521  0161                     	ds	1
   522  0162                     main@time:	
   523                           
   524                           ; 2 bytes @ 0xA
   525  0162                     	ds	2
   526  0164                     main@lux_select:	
   527                           
   528                           ; 1 bytes @ 0xC
   529  0164                     	ds	1
   530  0165                     main@i:	
   531                           
   532                           ; 2 bytes @ 0xD
   533  0165                     	ds	2
   534  0167                     main@i_447:	
   535                           
   536                           ; 2 bytes @ 0xF
   537  0167                     	ds	2
   538  0169                     main@l:	
   539                           
   540                           ; 2 bytes @ 0x11
   541  0169                     	ds	2
   542  016B                     main@i_445:	
   543                           
   544                           ; 2 bytes @ 0x13
   545  016B                     	ds	2
   546  016D                     main@i_446:	
   547                           
   548                           ; 2 bytes @ 0x15
   549  016D                     	ds	2
   550                           
   551                           	psect	cstackCOMMON
   552  0075                     __pcstackCOMMON:	
   553  0075                     ?_init_ADC:	
   554  0075                     ?_main:	
   555                           ; 1 bytes @ 0x0
   556                           
   557  0075                     ?_UART_TxChar:	
   558                           ; 1 bytes @ 0x0
   559                           
   560  0075                     ?_UART_Write_Text:	
   561                           ; 1 bytes @ 0x0
   562                           
   563  0075                     ?_UART_Read:	
   564                           ; 1 bytes @ 0x0
   565                           
   566  0075                     ??_UART_Read:	
   567                           ; 1 bytes @ 0x0
   568                           
   569  0075                     ?_conteggioVeicoli:	
   570                           ; 1 bytes @ 0x0
   571                           
   572  0075                     ??_conteggioVeicoli:	
   573                           ; 1 bytes @ 0x0
   574                           
   575  0075                     ?_ISR:	
   576                           ; 1 bytes @ 0x0
   577                           
   578                           
   579                           ; 1 bytes @ 0x0
   580  0075                     	ds	1
   581  0076                     ??_ISR:	
   582                           
   583                           ; 1 bytes @ 0x1
   584  0076                     	ds	4
   585                           
   586                           	psect	cstackBANK0
   587  0020                     __pcstackBANK0:	
   588  0020                     ??_init_ADC:	
   589  0020                     ?_SetDefaultTimers:	
   590                           ; 1 bytes @ 0x0
   591                           
   592  0020                     ?_SetDisplay:	
   593                           ; 1 bytes @ 0x0
   594                           
   595  0020                     ?_BuildByte:	
   596                           ; 1 bytes @ 0x0
   597                           
   598  0020                     ??_UART_TxChar:	
   599                           ; 1 bytes @ 0x0
   600                           
   601  0020                     ?___bmul:	
   602                           ; 1 bytes @ 0x0
   603                           
   604  0020                     ?_GetTime:	
   605                           ; 1 bytes @ 0x0
   606                           
   607  0020                     ?_ADC_Read:	
   608                           ; 2 bytes @ 0x0
   609                           
   610  0020                     ?___wmul:	
   611                           ; 2 bytes @ 0x0
   612                           
   613  0020                     ?___awmod:	
   614                           ; 2 bytes @ 0x0
   615                           
   616  0020                     ?___aldiv:	
   617                           ; 2 bytes @ 0x0
   618                           
   619  0020                     BuildByte@byte1:	
   620                           ; 4 bytes @ 0x0
   621                           
   622  0020                     UART_TxChar@ch:	
   623                           ; 1 bytes @ 0x0
   624                           
   625  0020                     SetDisplay@d2:	
   626                           ; 1 bytes @ 0x0
   627                           
   628  0020                     ___bmul@multiplicand:	
   629                           ; 1 bytes @ 0x0
   630                           
   631  0020                     GetTime@index:	
   632                           ; 1 bytes @ 0x0
   633                           
   634  0020                     SetDefaultTimers@rosso:	
   635                           ; 2 bytes @ 0x0
   636                           
   637  0020                     ___wmul@multiplier:	
   638                           ; 2 bytes @ 0x0
   639                           
   640  0020                     ___awmod@divisor:	
   641                           ; 2 bytes @ 0x0
   642                           
   643  0020                     ___aldiv@divisor:	
   644                           ; 2 bytes @ 0x0
   645                           
   646                           
   647                           ; 4 bytes @ 0x0
   648  0020                     	ds	1
   649  0021                     ??_UART_Write_Text:	
   650  0021                     ??___bmul:	
   651                           ; 1 bytes @ 0x1
   652                           
   653  0021                     BuildByte@valore:	
   654                           ; 1 bytes @ 0x1
   655                           
   656  0021                     SetDisplay@d3:	
   657                           ; 1 bytes @ 0x1
   658                           
   659                           
   660                           ; 1 bytes @ 0x1
   661  0021                     	ds	1
   662  0022                     ??_GetTime:	
   663  0022                     ??_ADC_Read:	
   664                           ; 1 bytes @ 0x2
   665                           
   666  0022                     ??_BuildByte:	
   667                           ; 1 bytes @ 0x2
   668                           
   669  0022                     UART_Write_Text@text:	
   670                           ; 1 bytes @ 0x2
   671                           
   672  0022                     SetDisplay@value:	
   673                           ; 1 bytes @ 0x2
   674                           
   675  0022                     ___bmul@product:	
   676                           ; 1 bytes @ 0x2
   677                           
   678  0022                     SetDefaultTimers@verde:	
   679                           ; 1 bytes @ 0x2
   680                           
   681  0022                     ___wmul@multiplicand:	
   682                           ; 2 bytes @ 0x2
   683                           
   684  0022                     ___awmod@dividend:	
   685                           ; 2 bytes @ 0x2
   686                           
   687                           
   688                           ; 2 bytes @ 0x2
   689  0022                     	ds	1
   690  0023                     ??_SetDisplay:	
   691  0023                     ADC_Read@canale:	
   692                           ; 1 bytes @ 0x3
   693                           
   694  0023                     SetDisplay@d1:	
   695                           ; 1 bytes @ 0x3
   696                           
   697  0023                     ___bmul@multiplier:	
   698                           ; 1 bytes @ 0x3
   699                           
   700  0023                     UART_Write_Text@i:	
   701                           ; 1 bytes @ 0x3
   702                           
   703                           
   704                           ; 2 bytes @ 0x3
   705  0023                     	ds	1
   706  0024                     ??___wmul:	
   707  0024                     ??___awmod:	
   708                           ; 1 bytes @ 0x4
   709                           
   710  0024                     BuildByte@byte0:	
   711                           ; 1 bytes @ 0x4
   712                           
   713  0024                     GetTime@shortInt:	
   714                           ; 1 bytes @ 0x4
   715                           
   716  0024                     SetDefaultTimers@giallo:	
   717                           ; 1 bytes @ 0x4
   718                           
   719  0024                     ___wmul@product:	
   720                           ; 2 bytes @ 0x4
   721                           
   722  0024                     ___aldiv@dividend:	
   723                           ; 2 bytes @ 0x4
   724                           
   725                           
   726                           ; 4 bytes @ 0x4
   727  0024                     	ds	1
   728  0025                     ___awmod@counter:	
   729  0025                     GetTime@time:	
   730                           ; 1 bytes @ 0x5
   731                           
   732  0025                     BuildByte@txByte:	
   733                           ; 2 bytes @ 0x5
   734                           
   735                           
   736                           ; 5 bytes @ 0x5
   737  0025                     	ds	1
   738  0026                     ??_SetDefaultTimers:	
   739  0026                     ___awmod@sign:	
   740                           ; 1 bytes @ 0x6
   741                           
   742                           
   743                           ; 1 bytes @ 0x6
   744  0026                     	ds	1
   745  0027                     ?___awdiv:	
   746  0027                     ___awdiv@divisor:	
   747                           ; 2 bytes @ 0x7
   748                           
   749                           
   750                           ; 2 bytes @ 0x7
   751  0027                     	ds	1
   752  0028                     ??___aldiv:	
   753                           
   754                           ; 1 bytes @ 0x8
   755  0028                     	ds	1
   756  0029                     ___aldiv@counter:	
   757  0029                     ___awdiv@dividend:	
   758                           ; 1 bytes @ 0x9
   759                           
   760                           
   761                           ; 2 bytes @ 0x9
   762  0029                     	ds	1
   763  002A                     BuildByte@sommaRow:	
   764  002A                     ___aldiv@sign:	
   765                           ; 1 bytes @ 0xA
   766                           
   767                           
   768                           ; 1 bytes @ 0xA
   769  002A                     	ds	1
   770  002B                     ??___awdiv:	
   771  002B                     BuildByte@sommaColumn:	
   772                           ; 1 bytes @ 0xB
   773                           
   774  002B                     ___aldiv@quotient:	
   775                           ; 1 bytes @ 0xB
   776                           
   777                           
   778                           ; 4 bytes @ 0xB
   779  002B                     	ds	1
   780  002C                     ___awdiv@counter:	
   781  002C                     BuildByte@y:	
   782                           ; 1 bytes @ 0xC
   783                           
   784  002C                     SetDefaultTimers@l:	
   785                           ; 2 bytes @ 0xC
   786                           
   787                           
   788                           ; 2 bytes @ 0xC
   789  002C                     	ds	1
   790  002D                     ___awdiv@sign:	
   791                           
   792                           ; 1 bytes @ 0xD
   793  002D                     	ds	1
   794  002E                     BuildByte@y_343:	
   795  002E                     SetDefaultTimers@i:	
   796                           ; 2 bytes @ 0xE
   797                           
   798  002E                     ___awdiv@quotient:	
   799                           ; 2 bytes @ 0xE
   800                           
   801                           
   802                           ; 2 bytes @ 0xE
   803  002E                     	ds	1
   804  002F                     ?_UART_Init:	
   805  002F                     UART_Init@baudrate:	
   806                           ; 1 bytes @ 0xF
   807                           
   808                           
   809                           ; 2 bytes @ 0xF
   810  002F                     	ds	1
   811  0030                     ?_GetDigits:	
   812  0030                     ?_map:	
   813                           ; 1 bytes @ 0x10
   814                           
   815  0030                     map@x:	
   816                           ; 2 bytes @ 0x10
   817                           
   818  0030                     BuildByte@i:	
   819                           ; 2 bytes @ 0x10
   820                           
   821  0030                     GetDigits@Time:	
   822                           ; 2 bytes @ 0x10
   823                           
   824                           
   825                           ; 2 bytes @ 0x10
   826  0030                     	ds	1
   827  0031                     ??_UART_Init:	
   828                           
   829                           ; 1 bytes @ 0x11
   830  0031                     	ds	1
   831  0032                     ??_GetDigits:	
   832  0032                     map@in_min:	
   833                           ; 1 bytes @ 0x12
   834                           
   835  0032                     BuildByte@i_342:	
   836                           ; 2 bytes @ 0x12
   837                           
   838                           
   839                           ; 2 bytes @ 0x12
   840  0032                     	ds	2
   841  0034                     ?_sendByte:	
   842  0034                     sendByte@byte1:	
   843                           ; 1 bytes @ 0x14
   844                           
   845  0034                     map@in_max:	
   846                           ; 1 bytes @ 0x14
   847                           
   848                           
   849                           ; 2 bytes @ 0x14
   850  0034                     	ds	1
   851  0035                     sendByte@valore:	
   852  0035                     _GetDigits$1152:	
   853                           ; 1 bytes @ 0x15
   854                           
   855                           
   856                           ; 2 bytes @ 0x15
   857  0035                     	ds	1
   858  0036                     ??_sendByte:	
   859  0036                     map@out_min:	
   860                           ; 1 bytes @ 0x16
   861                           
   862                           
   863                           ; 2 bytes @ 0x16
   864  0036                     	ds	2
   865  0038                     map@out_max:	
   866                           
   867                           ; 2 bytes @ 0x18
   868  0038                     	ds	1
   869  0039                     sendByte@byte0:	
   870                           
   871                           ; 1 bytes @ 0x19
   872  0039                     	ds	1
   873  003A                     ??_map:	
   874  003A                     sendByte@txByte:	
   875                           ; 1 bytes @ 0x1A
   876                           
   877                           
   878                           ; 1 bytes @ 0x1A
   879  003A                     	ds	1
   880  003B                     sendByte@i:	
   881                           
   882                           ; 2 bytes @ 0x1B
   883  003B                     	ds	2
   884  003D                     ??_main:	
   885                           
   886                           ; 1 bytes @ 0x1D
   887  003D                     	ds	16
   888                           
   889                           	psect	maintext
   890  004A                     __pmaintext:	
   891 ;;
   892 ;;Main: autosize = 0, tempsize = 16, incstack = 0, save=0
   893 ;;
   894 ;; *************** function _main *****************
   895 ;; Defined at:
   896 ;;		line 131 in file "main.c"
   897 ;; Parameters:    Size  Location     Type
   898 ;;		None
   899 ;; Auto vars:     Size  Location     Type
   900 ;;  i               2   19[BANK2 ] int 
   901 ;;  semaforoId      2    4[BANK2 ] int 
   902 ;;  colorId         2    2[BANK2 ] int 
   903 ;;  index           2    0[BANK2 ] int 
   904 ;;  i               2   13[BANK2 ] int 
   905 ;;  i               2   15[BANK2 ] int 
   906 ;;  i               2   21[BANK2 ] int 
   907 ;;  l               2   17[BANK2 ] int 
   908 ;;  i              10    0        int [5]
   909 ;;  colorsTime      6    0        int [3]
   910 ;;  time            2   10[BANK2 ] int 
   911 ;;  lux_select      1   12[BANK2 ] unsigned char 
   912 ;;  endCiclo        1    9[BANK2 ] struct .
   913 ;;  pressione       1    8[BANK2 ] unsigned char 
   914 ;;  umidita         1    7[BANK2 ] unsigned char 
   915 ;;  temp            1    6[BANK2 ] unsigned char 
   916 ;; Return value:  Size  Location     Type
   917 ;;                  1    wreg      void 
   918 ;; Registers used:
   919 ;;		wreg, fsr0l, fsr0h, status,2, status,0, btemp+1, pclath, cstack
   920 ;; Tracked objects:
   921 ;;		On entry : B00/0
   922 ;;		On exit  : 0/0
   923 ;;		Unchanged: 0/0
   924 ;; Data sizes:     COMMON   BANK0   BANK1   BANK3   BANK2
   925 ;;      Params:         0       0       0       0       0
   926 ;;      Locals:         0       0       0       0      23
   927 ;;      Temps:          0      16       0       0       0
   928 ;;      Totals:         0      16       0       0      23
   929 ;;Total ram usage:       39 bytes
   930 ;; Hardware stack levels required when called:    5
   931 ;; This function calls:
   932 ;;		_ADC_Read
   933 ;;		_GetDigits
   934 ;;		_GetTime
   935 ;;		_SetDefaultTimers
   936 ;;		_SetDisplay
   937 ;;		_UART_Init
   938 ;;		___awmod
   939 ;;		___bmul
   940 ;;		___wmul
   941 ;;		_init_ADC
   942 ;;		_map
   943 ;;		_sendByte
   944 ;; This function is called by:
   945 ;;		Startup code after reset
   946 ;; This function uses a non-reentrant model
   947 ;;
   948                           
   949                           
   950                           ;psect for function _main
   951  004A                     _main:	
   952  004A                     l2900:	
   953                           ;incstack = 0
   954                           ; Regs used in _main: [wreg-fsr0h+status,2+status,0+btemp+1+pclath+cstack]
   955                           
   956                           
   957                           ;main.c: 134:     TRISB = 0x1F;
   958  004A  301F               	movlw	31
   959  004B  1683               	bsf	3,5	;RP0=1, select bank1
   960  004C  1303               	bcf	3,6	;RP1=0, select bank1
   961  004D  0086               	movwf	6	;volatile
   962                           
   963                           ;main.c: 135:     TRISC = 0x80;
   964  004E  3080               	movlw	128
   965  004F  0087               	movwf	7	;volatile
   966  0050                     l2902:	
   967                           
   968                           ;main.c: 136:     TRISD = 0x00;
   969  0050  0188               	clrf	8	;volatile
   970  0051                     l2904:	
   971                           
   972                           ;main.c: 137:     TRISE = 0x01;
   973  0051  3001               	movlw	1
   974  0052  0089               	movwf	9	;volatile
   975  0053                     l2906:	
   976                           
   977                           ;main.c: 138:     INTCON = 0xE0;
   978  0053  30E0               	movlw	224
   979  0054  008B               	movwf	11	;volatile
   980  0055                     l2908:	
   981                           
   982                           ;main.c: 139:     OPTION_REG = 0x04;
   983  0055  3004               	movlw	4
   984  0056  0081               	movwf	1	;volatile
   985  0057                     l2910:	
   986                           
   987                           ;main.c: 140:     TMR0 = 6;
   988  0057  3006               	movlw	6
   989  0058  1283               	bcf	3,5	;RP0=0, select bank0
   990  0059  1303               	bcf	3,6	;RP1=0, select bank0
   991  005A  0081               	movwf	1	;volatile
   992  005B                     l2912:	
   993                           
   994                           ;main.c: 141:     T1CON = 0x31;
   995  005B  3031               	movlw	49
   996  005C  0090               	movwf	16	;volatile
   997  005D                     l2914:	
   998                           
   999                           ;main.c: 147:     init_ADC();
  1000  005D  120A  158A  242E  120A  118A  	fcall	_init_ADC
  1001  0062                     l2916:	
  1002                           
  1003                           ;main.c: 148:     UART_Init(9600);
  1004  0062  3080               	movlw	128
  1005  0063  1283               	bcf	3,5	;RP0=0, select bank0
  1006  0064  1303               	bcf	3,6	;RP1=0, select bank0
  1007  0065  00AF               	movwf	UART_Init@baudrate
  1008  0066  3025               	movlw	37
  1009  0067  00B0               	movwf	UART_Init@baudrate+1
  1010  0068  120A  158A  2527  120A  118A  	fcall	_UART_Init
  1011  006D                     l2918:	
  1012                           
  1013                           ;main.c: 149:     SetDefaultTimers(0, 0, 0);
  1014  006D  3000               	movlw	0
  1015  006E  1283               	bcf	3,5	;RP0=0, select bank0
  1016  006F  1303               	bcf	3,6	;RP1=0, select bank0
  1017  0070  00A0               	movwf	SetDefaultTimers@rosso
  1018  0071  00A1               	movwf	SetDefaultTimers@rosso+1
  1019  0072  3000               	movlw	0
  1020  0073  00A2               	movwf	SetDefaultTimers@verde
  1021  0074  00A3               	movwf	SetDefaultTimers@verde+1
  1022  0075  3000               	movlw	0
  1023  0076  00A4               	movwf	SetDefaultTimers@giallo
  1024  0077  00A5               	movwf	SetDefaultTimers@giallo+1
  1025  0078  120A  118A  273C  120A  118A  	fcall	_SetDefaultTimers
  1026  007D                     l2920:	
  1027                           
  1028                           ;main.c: 151:     TMR1H = 60;
  1029  007D  303C               	movlw	60
  1030  007E  1283               	bcf	3,5	;RP0=0, select bank0
  1031  007F  1303               	bcf	3,6	;RP1=0, select bank0
  1032  0080  008F               	movwf	15	;volatile
  1033  0081                     l2922:	
  1034                           
  1035                           ;main.c: 152:     TMR1L = 176;
  1036  0081  30B0               	movlw	176
  1037  0082  008E               	movwf	14	;volatile
  1038  0083                     l2924:	
  1039                           
  1040                           ;main.c: 154:     int colorsTime[3], time;;main.c: 155:     char lux_select = 0;
  1041  0083  1283               	bcf	3,5	;RP0=0, select bank2
  1042  0084  1703               	bsf	3,6	;RP1=1, select bank2
  1043  0085  01E4               	clrf	main@lux_select^(0+256)
  1044  0086                     l2926:	
  1045                           
  1046                           ;main.c: 156:     disp = 0;
  1047  0086  1283               	bcf	3,5	;RP0=0, select bank0
  1048  0087  1303               	bcf	3,6	;RP1=0, select bank0
  1049  0088  01DB               	clrf	_disp
  1050  0089                     l2928:	
  1051  0089                     l2930:	
  1052  0089                     l2932:	
  1053  0089                     l2934:	
  1054                           
  1055                           ;main.c: 160:     Bit endCiclo;;main.c: 161:     endCiclo.Bit = 1;
  1056  0089  1283               	bcf	3,5	;RP0=0, select bank2
  1057  008A  1703               	bsf	3,6	;RP1=1, select bank2
  1058  008B  1461               	bsf	main@endCiclo^(0+256),0
  1059  008C                     l2936:	
  1060                           
  1061                           ;main.c: 164:     {;main.c: 166:         if (readGateway.Bit)
  1062  008C  1283               	bcf	3,5	;RP0=0, select bank0
  1063  008D  1303               	bcf	3,6	;RP1=0, select bank0
  1064  008E  1C62               	btfss	_readGateway,0
  1065  008F  2891               	goto	u3001
  1066  0090  2892               	goto	u3000
  1067  0091                     u3001:	
  1068  0091  28BE               	goto	l216
  1069  0092                     u3000:	
  1070  0092  28A9               	goto	l2950
  1071  0093                     l218:	
  1072                           ;main.c: 169:             {;main.c: 170:             case 0x08:
  1073                           
  1074                           
  1075                           ;main.c: 171:                 readGatewayDone.Bit = 1;
  1076  0093  1463               	bsf	_readGatewayDone,0
  1077                           
  1078                           ;main.c: 172:                 readGateway.Bit = 0;
  1079  0094  1062               	bcf	_readGateway,0
  1080                           
  1081                           ;main.c: 173:                 break;
  1082  0095  28BE               	goto	l216
  1083  0096                     l2940:	
  1084                           
  1085                           ;main.c: 180:                 if (timerReadFromGateway >= 4)
  1086  0096  3004               	movlw	4
  1087  0097  0258               	subwf	_timerReadFromGateway,w
  1088  0098  1C03               	skipc
  1089  0099  289B               	goto	u3011
  1090  009A  289C               	goto	u3010
  1091  009B                     u3011:	
  1092  009B  289F               	goto	l2944
  1093  009C                     u3010:	
  1094  009C                     l2942:	
  1095                           
  1096                           ;main.c: 181:                 {;main.c: 182:                     readGatewayDone.Bit = 1
      +                          ;
  1097  009C  1463               	bsf	_readGatewayDone,0
  1098                           
  1099                           ;main.c: 183:                     readGatewayDone.Timeout = 1;
  1100  009D  14E3               	bsf	_readGatewayDone,1
  1101                           
  1102                           ;main.c: 184:                     readGateway.Bit = 0;
  1103  009E  1062               	bcf	_readGateway,0
  1104  009F                     l2944:	
  1105                           
  1106                           ;main.c: 187:                 if (dataFromGatewayIndex >= 15)
  1107  009F  300F               	movlw	15
  1108  00A0  0259               	subwf	_dataFromGatewayIndex,w
  1109  00A1  1C03               	skipc
  1110  00A2  28A4               	goto	u3021
  1111  00A3  28A5               	goto	u3020
  1112  00A4                     u3021:	
  1113  00A4  28BE               	goto	l216
  1114  00A5                     u3020:	
  1115  00A5                     l2946:	
  1116                           
  1117                           ;main.c: 188:                 {;main.c: 189:                     readGatewayDone.Bit = 1
      +                          ;
  1118  00A5  1463               	bsf	_readGatewayDone,0
  1119                           
  1120                           ;main.c: 190:                     readGatewayDone.Timeout = 0;
  1121  00A6  10E3               	bcf	_readGatewayDone,1
  1122                           
  1123                           ;main.c: 191:                     readGateway.Bit = 0;
  1124  00A7  1062               	bcf	_readGateway,0
  1125  00A8  28BE               	goto	l216
  1126  00A9                     l2950:	
  1127  00A9  1683               	bsf	3,5	;RP0=1, select bank1
  1128  00AA  1303               	bcf	3,6	;RP1=0, select bank1
  1129  00AB  0821               	movf	(_dataFromGateway^(0+128)+1),w
  1130  00AC  397F               	andlw	127
  1131  00AD  1283               	bcf	3,5	;RP0=0, select bank0
  1132  00AE  1303               	bcf	3,6	;RP1=0, select bank0
  1133  00AF  00BD               	movwf	??_main
  1134  00B0  01BE               	clrf	??_main+1
  1135                           
  1136                           ; Switch on 2 bytes has been partitioned into a top level switch of size 1, and 1 sub-sw
      +                          itches
  1137                           ; Switch size 1, requested type "simple"
  1138                           ; Number of cases is 1, Range of values is 0 to 0
  1139                           ; switch strategies available:
  1140                           ; Name         Instructions Cycles
  1141                           ; simple_byte            4     3 (average)
  1142                           ; direct_byte           11     8 (fixed)
  1143                           ; jumptable            260     6 (fixed)
  1144                           ;	Chosen strategy is simple_byte
  1145  00B1  083E               	movf	??_main+1,w
  1146  00B2  3A00               	xorlw	0	; case 0
  1147  00B3  1903               	skipnz
  1148  00B4  28B6               	goto	l3188
  1149  00B5  2896               	goto	l2940
  1150  00B6                     l3188:	
  1151                           
  1152                           ; Switch size 1, requested type "simple"
  1153                           ; Number of cases is 2, Range of values is 8 to 10
  1154                           ; switch strategies available:
  1155                           ; Name         Instructions Cycles
  1156                           ; simple_byte            7     4 (average)
  1157                           ; direct_byte           20    11 (fixed)
  1158                           ; jumptable            263     9 (fixed)
  1159                           ;	Chosen strategy is simple_byte
  1160  00B6  083D               	movf	??_main,w
  1161  00B7  3A08               	xorlw	8	; case 8
  1162  00B8  1903               	skipnz
  1163  00B9  2893               	goto	l218
  1164  00BA  3A02               	xorlw	2	; case 10
  1165  00BB  1903               	skipnz
  1166  00BC  2893               	goto	l218
  1167  00BD  2896               	goto	l2940
  1168  00BE                     l216:	
  1169                           ;main.c: 195:         }
  1170                           
  1171                           
  1172                           ;main.c: 198:         if (readGatewayDone.Bit)
  1173  00BE  1C63               	btfss	_readGatewayDone,0
  1174  00BF  28C1               	goto	u3031
  1175  00C0  28C2               	goto	u3030
  1176  00C1                     u3031:	
  1177  00C1  2975               	goto	l224
  1178  00C2                     u3030:	
  1179  00C2                     l2952:	
  1180                           
  1181                           ;main.c: 199:         {;main.c: 201:             readGateway.Bit = 0;
  1182  00C2  1062               	bcf	_readGateway,0
  1183  00C3                     l2954:	
  1184                           
  1185                           ;main.c: 202:             dataFromGatewayIndex = 0;
  1186  00C3  01D9               	clrf	_dataFromGatewayIndex
  1187  00C4                     l2956:	
  1188                           
  1189                           ;main.c: 203:             readGatewayDone.Bit = 0;
  1190  00C4  1063               	bcf	_readGatewayDone,0
  1191                           
  1192                           ;main.c: 204:             timerReadFromGateway = 0;
  1193  00C5  01D8               	clrf	_timerReadFromGateway
  1194  00C6                     l2958:	
  1195                           
  1196                           ;main.c: 207:             if (readGatewayDone.Timeout)
  1197  00C6  1CE3               	btfss	_readGatewayDone,1
  1198  00C7  28C9               	goto	u3041
  1199  00C8  28CA               	goto	u3040
  1200  00C9                     u3041:	
  1201  00C9  28CC               	goto	l2962
  1202  00CA                     u3040:	
  1203  00CA                     l2960:	
  1204                           
  1205                           ;main.c: 208:             {;main.c: 209:                 readGatewayDone.Timeout = 0;
  1206  00CA  10E3               	bcf	_readGatewayDone,1
  1207                           
  1208                           ;main.c: 210:             }
  1209  00CB  2975               	goto	l224
  1210  00CC                     l2962:	
  1211                           
  1212                           ;main.c: 213:             {;main.c: 216:                 for (int i = 0; i < 3; i++)
  1213  00CC  1283               	bcf	3,5	;RP0=0, select bank2
  1214  00CD  1703               	bsf	3,6	;RP1=1, select bank2
  1215  00CE  01E5               	clrf	main@i^(0+256)
  1216  00CF  01E6               	clrf	(main@i+1)^(0+256)
  1217  00D0                     l2968:	
  1218                           
  1219                           ;main.c: 217:                 {;main.c: 218:                     int index = i * 5;
  1220  00D0  1283               	bcf	3,5	;RP0=0, select bank2
  1221  00D1  1703               	bsf	3,6	;RP1=1, select bank2
  1222  00D2  0866               	movf	(main@i+1)^(0+256),w
  1223  00D3  1283               	bcf	3,5	;RP0=0, select bank0
  1224  00D4  1303               	bcf	3,6	;RP1=0, select bank0
  1225  00D5  00A1               	movwf	___wmul@multiplier+1
  1226  00D6  1283               	bcf	3,5	;RP0=0, select bank2
  1227  00D7  1703               	bsf	3,6	;RP1=1, select bank2
  1228  00D8  0865               	movf	main@i^(0+256),w
  1229  00D9  1283               	bcf	3,5	;RP0=0, select bank0
  1230  00DA  1303               	bcf	3,6	;RP1=0, select bank0
  1231  00DB  00A0               	movwf	___wmul@multiplier
  1232  00DC  3005               	movlw	5
  1233  00DD  00A2               	movwf	___wmul@multiplicand
  1234  00DE  3000               	movlw	0
  1235  00DF  00A3               	movwf	___wmul@multiplicand+1
  1236  00E0  120A  158A  24CB  120A  118A  	fcall	___wmul
  1237  00E5  1283               	bcf	3,5	;RP0=0, select bank0
  1238  00E6  1303               	bcf	3,6	;RP1=0, select bank0
  1239  00E7  0821               	movf	?___wmul+1,w
  1240  00E8  1283               	bcf	3,5	;RP0=0, select bank2
  1241  00E9  1703               	bsf	3,6	;RP1=1, select bank2
  1242  00EA  00D9               	movwf	(main@index+1)^(0+256)
  1243  00EB  1283               	bcf	3,5	;RP0=0, select bank0
  1244  00EC  1303               	bcf	3,6	;RP1=0, select bank0
  1245  00ED  0820               	movf	?___wmul,w
  1246  00EE  1283               	bcf	3,5	;RP0=0, select bank2
  1247  00EF  1703               	bsf	3,6	;RP1=1, select bank2
  1248  00F0  00D8               	movwf	main@index^(0+256)
  1249  00F1                     l2970:	
  1250                           
  1251                           ;main.c: 219:                     int colorId = ((dataFromGateway[i * 5] >> 5) & 0x03) -
      +                           1;
  1252  00F1  3005               	movlw	5
  1253  00F2  1283               	bcf	3,5	;RP0=0, select bank0
  1254  00F3  1303               	bcf	3,6	;RP1=0, select bank0
  1255  00F4  00BD               	movwf	??_main
  1256  00F5  083D               	movf	??_main,w
  1257  00F6  00A0               	movwf	___bmul@multiplicand
  1258  00F7  1283               	bcf	3,5	;RP0=0, select bank2
  1259  00F8  1703               	bsf	3,6	;RP1=1, select bank2
  1260  00F9  0865               	movf	main@i^(0+256),w
  1261  00FA  120A  158A  2469  120A  118A  	fcall	___bmul
  1262  00FF  3EA0               	addlw	(low (_dataFromGateway| 0))& (0+255)
  1263  0100  0084               	movwf	4
  1264  0101  1383               	bcf	3,7	;select IRP bank1
  1265  0102  0800               	movf	0,w
  1266  0103  1283               	bcf	3,5	;RP0=0, select bank0
  1267  0104  1303               	bcf	3,6	;RP1=0, select bank0
  1268  0105  00BE               	movwf	??_main+1
  1269  0106  3005               	movlw	5
  1270  0107                     u3055:	
  1271  0107  1003               	clrc
  1272  0108  0CBE               	rrf	??_main+1,f
  1273  0109  3EFF               	addlw	-1
  1274  010A  1D03               	skipz
  1275  010B  2907               	goto	u3055
  1276  010C  083E               	movf	??_main+1,w
  1277  010D  3903               	andlw	3
  1278  010E  3EFF               	addlw	255
  1279  010F  1283               	bcf	3,5	;RP0=0, select bank2
  1280  0110  1703               	bsf	3,6	;RP1=1, select bank2
  1281  0111  00DA               	movwf	main@colorId^(0+256)
  1282  0112  30FF               	movlw	255
  1283  0113  1803               	skipnc
  1284  0114  3000               	movlw	0
  1285  0115  00DB               	movwf	(main@colorId^(0+256)+1)
  1286  0116                     l2972:	
  1287                           
  1288                           ;main.c: 220:                     int semaforoId = (dataFromGateway[0] >> 1) & 0x07;
  1289  0116  1683               	bsf	3,5	;RP0=1, select bank1
  1290  0117  1303               	bcf	3,6	;RP1=0, select bank1
  1291  0118  0820               	movf	_dataFromGateway^(0+128),w
  1292  0119  1283               	bcf	3,5	;RP0=0, select bank0
  1293  011A  1303               	bcf	3,6	;RP1=0, select bank0
  1294  011B  00BD               	movwf	??_main
  1295  011C  1003               	clrc
  1296  011D  0C3D               	rrf	??_main,w
  1297  011E  3907               	andlw	7
  1298  011F  00BE               	movwf	??_main+1
  1299  0120  01BF               	clrf	??_main+2
  1300  0121  083E               	movf	??_main+1,w
  1301  0122  1283               	bcf	3,5	;RP0=0, select bank2
  1302  0123  1703               	bsf	3,6	;RP1=1, select bank2
  1303  0124  00DC               	movwf	main@semaforoId^(0+256)
  1304  0125  1283               	bcf	3,5	;RP0=0, select bank0
  1305  0126  1303               	bcf	3,6	;RP1=0, select bank0
  1306  0127  083F               	movf	??_main+2,w
  1307  0128  1283               	bcf	3,5	;RP0=0, select bank2
  1308  0129  1703               	bsf	3,6	;RP1=1, select bank2
  1309  012A  00DD               	movwf	(main@semaforoId+1)^(0+256)
  1310  012B                     l2974:	
  1311                           
  1312                           ;main.c: 222:                     (*(Semafori[semaforoId])).new_times[colorId] = GetTime
      +                          (index);
  1313  012B  0859               	movf	(main@index+1)^(0+256),w
  1314  012C  1283               	bcf	3,5	;RP0=0, select bank0
  1315  012D  1303               	bcf	3,6	;RP1=0, select bank0
  1316  012E  00A1               	movwf	GetTime@index+1
  1317  012F  1283               	bcf	3,5	;RP0=0, select bank2
  1318  0130  1703               	bsf	3,6	;RP1=1, select bank2
  1319  0131  0858               	movf	main@index^(0+256),w
  1320  0132  1283               	bcf	3,5	;RP0=0, select bank0
  1321  0133  1303               	bcf	3,6	;RP1=0, select bank0
  1322  0134  00A0               	movwf	GetTime@index
  1323  0135  120A  158A  259B  120A  118A  	fcall	_GetTime
  1324  013A  1283               	bcf	3,5	;RP0=0, select bank2
  1325  013B  1703               	bsf	3,6	;RP1=1, select bank2
  1326  013C  085C               	movf	main@semaforoId^(0+256),w
  1327  013D  1283               	bcf	3,5	;RP0=0, select bank0
  1328  013E  1303               	bcf	3,6	;RP1=0, select bank0
  1329  013F  00BD               	movwf	??_main
  1330  0140  073D               	addwf	??_main,w
  1331  0141  3ECF               	addlw	(low (_Semafori| 0))& (0+255)
  1332  0142  0084               	movwf	4
  1333  0143  1383               	bcf	3,7	;select IRP bank1
  1334  0144  0800               	movf	0,w
  1335  0145  00BE               	movwf	??_main+1
  1336  0146  0A84               	incf	4,f
  1337  0147  0800               	movf	0,w
  1338  0148  00BF               	movwf	??_main+2
  1339  0149  1283               	bcf	3,5	;RP0=0, select bank2
  1340  014A  1703               	bsf	3,6	;RP1=1, select bank2
  1341  014B  085A               	movf	main@colorId^(0+256),w
  1342  014C  1283               	bcf	3,5	;RP0=0, select bank0
  1343  014D  1303               	bcf	3,6	;RP1=0, select bank0
  1344  014E  00C0               	movwf	??_main+3
  1345  014F  0740               	addwf	??_main+3,w
  1346  0150  073E               	addwf	??_main+1,w
  1347  0151  00C1               	movwf	??_main+4
  1348  0152  083F               	movf	??_main+2,w
  1349  0153  1803               	skipnc
  1350  0154  3E01               	addlw	1
  1351  0155  00C2               	movwf	??_main+5
  1352  0156  0841               	movf	??_main+4,w
  1353  0157  0084               	movwf	4
  1354  0158  1783               	bsf	3,7
  1355  0159  1C42               	btfss	??_main+5,0
  1356  015A  1383               	bcf	3,7
  1357  015B  0820               	movf	?_GetTime,w
  1358  015C  0080               	movwf	0
  1359  015D  0A84               	incf	4,f
  1360  015E  0821               	movf	?_GetTime+1,w
  1361  015F  0080               	movwf	0
  1362  0160                     l2976:	
  1363                           
  1364                           ;main.c: 223:                 }
  1365  0160  3001               	movlw	1
  1366  0161  1283               	bcf	3,5	;RP0=0, select bank2
  1367  0162  1703               	bsf	3,6	;RP1=1, select bank2
  1368  0163  07E5               	addwf	main@i^(0+256),f
  1369  0164  1803               	skipnc
  1370  0165  0AE6               	incf	(main@i+1)^(0+256),f
  1371  0166  3000               	movlw	0
  1372  0167  07E6               	addwf	(main@i+1)^(0+256),f
  1373  0168                     l2978:	
  1374  0168  0866               	movf	(main@i+1)^(0+256),w
  1375  0169  3A80               	xorlw	128
  1376  016A  00FF               	movwf	btemp+1
  1377  016B  3080               	movlw	128
  1378  016C  027F               	subwf	btemp+1,w
  1379  016D  1D03               	skipz
  1380  016E  2971               	goto	u3065
  1381  016F  3003               	movlw	3
  1382  0170  0265               	subwf	main@i^(0+256),w
  1383  0171                     u3065:	
  1384  0171  1C03               	skipc
  1385  0172  2974               	goto	u3061
  1386  0173  2975               	goto	u3060
  1387  0174                     u3061:	
  1388  0174  28D0               	goto	l2968
  1389  0175                     u3060:	
  1390  0175                     l224:	
  1391                           ;main.c: 225:         }
  1392                           
  1393                           
  1394                           ;main.c: 229:         if (endCiclo.Bit)
  1395  0175  1283               	bcf	3,5	;RP0=0, select bank2
  1396  0176  1703               	bsf	3,6	;RP1=1, select bank2
  1397  0177  1C61               	btfss	main@endCiclo^(0+256),0
  1398  0178  297A               	goto	u3071
  1399  0179  297B               	goto	u3070
  1400  017A                     u3071:	
  1401  017A  2A8F               	goto	l229
  1402  017B                     u3070:	
  1403  017B                     l2980:	
  1404                           
  1405                           ;main.c: 230:         {;main.c: 231:             n_semafori = (n_semafori + 1) % 16;
  1406  017B  1283               	bcf	3,5	;RP0=0, select bank0
  1407  017C  1303               	bcf	3,6	;RP1=0, select bank0
  1408  017D  0855               	movf	_n_semafori,w
  1409  017E  3E01               	addlw	1
  1410  017F  00BD               	movwf	??_main
  1411  0180  0856               	movf	_n_semafori+1,w
  1412  0181  1803               	skipnc
  1413  0182  3E01               	addlw	1
  1414  0183  3E00               	addlw	0
  1415  0184  00BE               	movwf	??_main+1
  1416  0185  300F               	movlw	15
  1417  0186  053D               	andwf	??_main,w
  1418  0187  00D5               	movwf	_n_semafori
  1419  0188  3000               	movlw	0
  1420  0189  053E               	andwf	??_main+1,w
  1421  018A  00D6               	movwf	_n_semafori+1
  1422                           
  1423                           ;main.c: 232:             while ((*(Semafori[n_semafori])).times[0] == 0)
  1424  018B  2992               	goto	l2984
  1425  018C                     l2982:	
  1426                           
  1427                           ;main.c: 233:             {;main.c: 234:                 n_semafori++;
  1428  018C  3001               	movlw	1
  1429  018D  07D5               	addwf	_n_semafori,f
  1430  018E  1803               	skipnc
  1431  018F  0AD6               	incf	_n_semafori+1,f
  1432  0190  3000               	movlw	0
  1433  0191  07D6               	addwf	_n_semafori+1,f
  1434  0192                     l2984:	
  1435                           
  1436                           ;main.c: 232:             while ((*(Semafori[n_semafori])).times[0] == 0)
  1437  0192  0855               	movf	_n_semafori,w
  1438  0193  00BD               	movwf	??_main
  1439  0194  073D               	addwf	??_main,w
  1440  0195  3ECF               	addlw	(low (_Semafori| 0))& (0+255)
  1441  0196  0084               	movwf	4
  1442  0197  1383               	bcf	3,7	;select IRP bank1
  1443  0198  0800               	movf	0,w
  1444  0199  00BE               	movwf	??_main+1
  1445  019A  0A84               	incf	4,f
  1446  019B  0800               	movf	0,w
  1447  019C  00BF               	movwf	??_main+2
  1448  019D  083E               	movf	??_main+1,w
  1449  019E  3E06               	addlw	6
  1450  019F  00C0               	movwf	??_main+3
  1451  01A0  083F               	movf	??_main+2,w
  1452  01A1  1803               	skipnc
  1453  01A2  3E01               	addlw	1
  1454  01A3  3E00               	addlw	0
  1455  01A4  00C1               	movwf	??_main+4
  1456  01A5  0840               	movf	??_main+3,w
  1457  01A6  0084               	movwf	4
  1458  01A7  1783               	bsf	3,7
  1459  01A8  1C41               	btfss	??_main+4,0
  1460  01A9  1383               	bcf	3,7
  1461  01AA  0800               	movf	0,w
  1462  01AB  00C2               	movwf	??_main+5
  1463  01AC  0A84               	incf	4,f
  1464  01AD  0800               	movf	0,w
  1465  01AE  00C3               	movwf	??_main+6
  1466  01AF  0842               	movf	??_main+5,w
  1467  01B0  0443               	iorwf	??_main+6,w
  1468  01B1  1903               	btfsc	3,2
  1469  01B2  29B4               	goto	u3081
  1470  01B3  29B5               	goto	u3080
  1471  01B4                     u3081:	
  1472  01B4  298C               	goto	l2982
  1473  01B5                     u3080:	
  1474  01B5                     l2986:	
  1475                           
  1476                           ;main.c: 237:             for (int l = 0; l < 16; l++)
  1477  01B5  1283               	bcf	3,5	;RP0=0, select bank2
  1478  01B6  1703               	bsf	3,6	;RP1=1, select bank2
  1479  01B7  01E9               	clrf	main@l^(0+256)
  1480  01B8  01EA               	clrf	(main@l+1)^(0+256)
  1481  01B9                     l2988:	
  1482  01B9  086A               	movf	(main@l+1)^(0+256),w
  1483  01BA  3A80               	xorlw	128
  1484  01BB  00FF               	movwf	btemp+1
  1485  01BC  3080               	movlw	128
  1486  01BD  027F               	subwf	btemp+1,w
  1487  01BE  1D03               	skipz
  1488  01BF  29C2               	goto	u3095
  1489  01C0  3010               	movlw	16
  1490  01C1  0269               	subwf	main@l^(0+256),w
  1491  01C2                     u3095:	
  1492  01C2  1C03               	skipc
  1493  01C3  29C5               	goto	u3091
  1494  01C4  29C6               	goto	u3090
  1495  01C5                     u3091:	
  1496  01C5  29C7               	goto	l2992
  1497  01C6                     u3090:	
  1498  01C6  2A8F               	goto	l229
  1499  01C7                     l2992:	
  1500                           
  1501                           ;main.c: 238:             {;main.c: 239:                 for (int i = 0; i < 3; i++)
  1502  01C7  1283               	bcf	3,5	;RP0=0, select bank2
  1503  01C8  1703               	bsf	3,6	;RP1=1, select bank2
  1504  01C9  01EB               	clrf	main@i_445^(0+256)
  1505  01CA  01EC               	clrf	(main@i_445+1)^(0+256)
  1506  01CB                     l2994:	
  1507  01CB  086C               	movf	(main@i_445+1)^(0+256),w
  1508  01CC  3A80               	xorlw	128
  1509  01CD  00FF               	movwf	btemp+1
  1510  01CE  3080               	movlw	128
  1511  01CF  027F               	subwf	btemp+1,w
  1512  01D0  1D03               	skipz
  1513  01D1  29D4               	goto	u3105
  1514  01D2  3003               	movlw	3
  1515  01D3  026B               	subwf	main@i_445^(0+256),w
  1516  01D4                     u3105:	
  1517  01D4  1C03               	skipc
  1518  01D5  29D7               	goto	u3101
  1519  01D6  29D8               	goto	u3100
  1520  01D7                     u3101:	
  1521  01D7  29D9               	goto	l2998
  1522  01D8                     u3100:	
  1523  01D8  2A86               	goto	l3006
  1524  01D9                     l2998:	
  1525                           
  1526                           ;main.c: 240:                 {;main.c: 241:                     if ((*(Semafori[l])).ti
      +                          mes[i] != (*(Semafori[l])).new_times[i])
  1527  01D9  1283               	bcf	3,5	;RP0=0, select bank2
  1528  01DA  1703               	bsf	3,6	;RP1=1, select bank2
  1529  01DB  0869               	movf	main@l^(0+256),w
  1530  01DC  1283               	bcf	3,5	;RP0=0, select bank0
  1531  01DD  1303               	bcf	3,6	;RP1=0, select bank0
  1532  01DE  00BD               	movwf	??_main
  1533  01DF  073D               	addwf	??_main,w
  1534  01E0  3ECF               	addlw	(low (_Semafori| 0))& (0+255)
  1535  01E1  0084               	movwf	4
  1536  01E2  1383               	bcf	3,7	;select IRP bank1
  1537  01E3  0800               	movf	0,w
  1538  01E4  00BE               	movwf	??_main+1
  1539  01E5  0A84               	incf	4,f
  1540  01E6  0800               	movf	0,w
  1541  01E7  00BF               	movwf	??_main+2
  1542  01E8  1283               	bcf	3,5	;RP0=0, select bank2
  1543  01E9  1703               	bsf	3,6	;RP1=1, select bank2
  1544  01EA  086B               	movf	main@i_445^(0+256),w
  1545  01EB  1283               	bcf	3,5	;RP0=0, select bank0
  1546  01EC  1303               	bcf	3,6	;RP1=0, select bank0
  1547  01ED  00C0               	movwf	??_main+3
  1548  01EE  0740               	addwf	??_main+3,w
  1549  01EF  073E               	addwf	??_main+1,w
  1550  01F0  00C1               	movwf	??_main+4
  1551  01F1  083F               	movf	??_main+2,w
  1552  01F2  1803               	skipnc
  1553  01F3  3E01               	addlw	1
  1554  01F4  00C2               	movwf	??_main+5
  1555  01F5  0841               	movf	??_main+4,w
  1556  01F6  0084               	movwf	4
  1557  01F7  1783               	bsf	3,7
  1558  01F8  1C42               	btfss	??_main+5,0
  1559  01F9  1383               	bcf	3,7
  1560  01FA  0800               	movf	0,w
  1561  01FB  00C3               	movwf	??_main+6
  1562  01FC  0A84               	incf	4,f
  1563  01FD  0800               	movf	0,w
  1564  01FE  00C4               	movwf	??_main+7
  1565  01FF  1283               	bcf	3,5	;RP0=0, select bank2
  1566  0200  1703               	bsf	3,6	;RP1=1, select bank2
  1567  0201  0869               	movf	main@l^(0+256),w
  1568  0202  1283               	bcf	3,5	;RP0=0, select bank0
  1569  0203  1303               	bcf	3,6	;RP1=0, select bank0
  1570  0204  00C5               	movwf	??_main+8
  1571  0205  0745               	addwf	??_main+8,w
  1572  0206  3ECF               	addlw	(low (_Semafori| 0))& (0+255)
  1573  0207  0084               	movwf	4
  1574  0208  1383               	bcf	3,7	;select IRP bank1
  1575  0209  0800               	movf	0,w
  1576  020A  00C6               	movwf	??_main+9
  1577  020B  0A84               	incf	4,f
  1578  020C  0800               	movf	0,w
  1579  020D  00C7               	movwf	??_main+10
  1580  020E  1283               	bcf	3,5	;RP0=0, select bank2
  1581  020F  1703               	bsf	3,6	;RP1=1, select bank2
  1582  0210  086B               	movf	main@i_445^(0+256),w
  1583  0211  1283               	bcf	3,5	;RP0=0, select bank0
  1584  0212  1303               	bcf	3,6	;RP1=0, select bank0
  1585  0213  00C8               	movwf	??_main+11
  1586  0214  0748               	addwf	??_main+11,w
  1587  0215  3E06               	addlw	6
  1588  0216  0746               	addwf	??_main+9,w
  1589  0217  00C9               	movwf	??_main+12
  1590  0218  0847               	movf	??_main+10,w
  1591  0219  1803               	skipnc
  1592  021A  3E01               	addlw	1
  1593  021B  00CA               	movwf	??_main+13
  1594  021C  0849               	movf	??_main+12,w
  1595  021D  0084               	movwf	4
  1596  021E  1783               	bsf	3,7
  1597  021F  1C4A               	btfss	??_main+13,0
  1598  0220  1383               	bcf	3,7
  1599  0221  0800               	movf	0,w
  1600  0222  00CB               	movwf	??_main+14
  1601  0223  0A84               	incf	4,f
  1602  0224  0800               	movf	0,w
  1603  0225  00CC               	movwf	??_main+15
  1604  0226  0844               	movf	??_main+7,w
  1605  0227  064C               	xorwf	??_main+15,w
  1606  0228  1D03               	skipz
  1607  0229  2A2C               	goto	u3115
  1608  022A  0843               	movf	??_main+6,w
  1609  022B  064B               	xorwf	??_main+14,w
  1610  022C                     u3115:	
  1611  022C  1903               	skipnz
  1612  022D  2A2F               	goto	u3111
  1613  022E  2A30               	goto	u3110
  1614  022F                     u3111:	
  1615  022F  2A7D               	goto	l3002
  1616  0230                     u3110:	
  1617  0230                     l3000:	
  1618                           
  1619                           ;main.c: 242:                     {;main.c: 243:                         (*(Semafori[l])
      +                          ).times[i] = (*(Semafori[l])).new_times[i];
  1620  0230  1283               	bcf	3,5	;RP0=0, select bank2
  1621  0231  1703               	bsf	3,6	;RP1=1, select bank2
  1622  0232  0869               	movf	main@l^(0+256),w
  1623  0233  1283               	bcf	3,5	;RP0=0, select bank0
  1624  0234  1303               	bcf	3,6	;RP1=0, select bank0
  1625  0235  00BD               	movwf	??_main
  1626  0236  073D               	addwf	??_main,w
  1627  0237  3ECF               	addlw	(low (_Semafori| 0))& (0+255)
  1628  0238  0084               	movwf	4
  1629  0239  1383               	bcf	3,7	;select IRP bank1
  1630  023A  0800               	movf	0,w
  1631  023B  00BE               	movwf	??_main+1
  1632  023C  0A84               	incf	4,f
  1633  023D  0800               	movf	0,w
  1634  023E  00BF               	movwf	??_main+2
  1635  023F  1283               	bcf	3,5	;RP0=0, select bank2
  1636  0240  1703               	bsf	3,6	;RP1=1, select bank2
  1637  0241  086B               	movf	main@i_445^(0+256),w
  1638  0242  1283               	bcf	3,5	;RP0=0, select bank0
  1639  0243  1303               	bcf	3,6	;RP1=0, select bank0
  1640  0244  00C0               	movwf	??_main+3
  1641  0245  0740               	addwf	??_main+3,w
  1642  0246  073E               	addwf	??_main+1,w
  1643  0247  00C1               	movwf	??_main+4
  1644  0248  083F               	movf	??_main+2,w
  1645  0249  1803               	skipnc
  1646  024A  3E01               	addlw	1
  1647  024B  00C2               	movwf	??_main+5
  1648  024C  0841               	movf	??_main+4,w
  1649  024D  0084               	movwf	4
  1650  024E  1783               	bsf	3,7
  1651  024F  1C42               	btfss	??_main+5,0
  1652  0250  1383               	bcf	3,7
  1653  0251  0800               	movf	0,w
  1654  0252  00C3               	movwf	??_main+6
  1655  0253  0A84               	incf	4,f
  1656  0254  0800               	movf	0,w
  1657  0255  00C4               	movwf	??_main+7
  1658  0256  1283               	bcf	3,5	;RP0=0, select bank2
  1659  0257  1703               	bsf	3,6	;RP1=1, select bank2
  1660  0258  0869               	movf	main@l^(0+256),w
  1661  0259  1283               	bcf	3,5	;RP0=0, select bank0
  1662  025A  1303               	bcf	3,6	;RP1=0, select bank0
  1663  025B  00C5               	movwf	??_main+8
  1664  025C  0745               	addwf	??_main+8,w
  1665  025D  3ECF               	addlw	(low (_Semafori| 0))& (0+255)
  1666  025E  0084               	movwf	4
  1667  025F  1383               	bcf	3,7	;select IRP bank1
  1668  0260  0800               	movf	0,w
  1669  0261  00C6               	movwf	??_main+9
  1670  0262  0A84               	incf	4,f
  1671  0263  0800               	movf	0,w
  1672  0264  00C7               	movwf	??_main+10
  1673  0265  1283               	bcf	3,5	;RP0=0, select bank2
  1674  0266  1703               	bsf	3,6	;RP1=1, select bank2
  1675  0267  086B               	movf	main@i_445^(0+256),w
  1676  0268  1283               	bcf	3,5	;RP0=0, select bank0
  1677  0269  1303               	bcf	3,6	;RP1=0, select bank0
  1678  026A  00C8               	movwf	??_main+11
  1679  026B  0748               	addwf	??_main+11,w
  1680  026C  3E06               	addlw	6
  1681  026D  0746               	addwf	??_main+9,w
  1682  026E  00C9               	movwf	??_main+12
  1683  026F  0847               	movf	??_main+10,w
  1684  0270  1803               	skipnc
  1685  0271  3E01               	addlw	1
  1686  0272  00CA               	movwf	??_main+13
  1687  0273  0849               	movf	??_main+12,w
  1688  0274  0084               	movwf	4
  1689  0275  1783               	bsf	3,7
  1690  0276  1C4A               	btfss	??_main+13,0
  1691  0277  1383               	bcf	3,7
  1692  0278  0843               	movf	??_main+6,w
  1693  0279  0080               	movwf	0
  1694  027A  0A84               	incf	4,f
  1695  027B  0844               	movf	??_main+7,w
  1696  027C  0080               	movwf	0
  1697  027D                     l3002:	
  1698                           
  1699                           ;main.c: 245:                 }
  1700  027D  3001               	movlw	1
  1701  027E  1283               	bcf	3,5	;RP0=0, select bank2
  1702  027F  1703               	bsf	3,6	;RP1=1, select bank2
  1703  0280  07EB               	addwf	main@i_445^(0+256),f
  1704  0281  1803               	skipnc
  1705  0282  0AEC               	incf	(main@i_445+1)^(0+256),f
  1706  0283  3000               	movlw	0
  1707  0284  07EC               	addwf	(main@i_445+1)^(0+256),f
  1708  0285  29CB               	goto	l2994
  1709  0286                     l3006:	
  1710                           
  1711                           ;main.c: 246:             }
  1712  0286  3001               	movlw	1
  1713  0287  1283               	bcf	3,5	;RP0=0, select bank2
  1714  0288  1703               	bsf	3,6	;RP1=1, select bank2
  1715  0289  07E9               	addwf	main@l^(0+256),f
  1716  028A  1803               	skipnc
  1717  028B  0AEA               	incf	(main@l+1)^(0+256),f
  1718  028C  3000               	movlw	0
  1719  028D  07EA               	addwf	(main@l+1)^(0+256),f
  1720  028E  29B9               	goto	l2988
  1721  028F                     l229:	
  1722                           ;main.c: 247:         }
  1723                           
  1724                           
  1725                           ;main.c: 251:         if (secondPassed.Bit && cycled.Bit)
  1726  028F  1283               	bcf	3,5	;RP0=0, select bank0
  1727  0290  1303               	bcf	3,6	;RP1=0, select bank0
  1728  0291  1C61               	btfss	_secondPassed,0
  1729  0292  2A94               	goto	u3121
  1730  0293  2A95               	goto	u3120
  1731  0294                     u3121:	
  1732  0294  2B53               	goto	l3028
  1733  0295                     u3120:	
  1734  0295                     l3010:	
  1735  0295  1C60               	btfss	_cycled,0
  1736  0296  2A98               	goto	u3131
  1737  0297  2A99               	goto	u3130
  1738  0298                     u3131:	
  1739  0298  2B53               	goto	l3028
  1740  0299                     u3130:	
  1741  0299                     l3012:	
  1742                           
  1743                           ;main.c: 252:         {;main.c: 253:             time++;
  1744  0299  3001               	movlw	1
  1745  029A  1283               	bcf	3,5	;RP0=0, select bank2
  1746  029B  1703               	bsf	3,6	;RP1=1, select bank2
  1747  029C  07E2               	addwf	main@time^(0+256),f
  1748  029D  1803               	skipnc
  1749  029E  0AE3               	incf	(main@time+1)^(0+256),f
  1750  029F  3000               	movlw	0
  1751  02A0  07E3               	addwf	(main@time+1)^(0+256),f
  1752  02A1                     l3014:	
  1753                           
  1754                           ;main.c: 254:             endCiclo.Bit = 0;
  1755  02A1  1061               	bcf	main@endCiclo^(0+256),0
  1756  02A2                     l3016:	
  1757                           
  1758                           ;main.c: 256:             if ((*Semafori[n_semafori]).times[lux_select] - time < 0)
  1759  02A2  1283               	bcf	3,5	;RP0=0, select bank0
  1760  02A3  1303               	bcf	3,6	;RP1=0, select bank0
  1761  02A4  0855               	movf	_n_semafori,w
  1762  02A5  00BD               	movwf	??_main
  1763  02A6  073D               	addwf	??_main,w
  1764  02A7  3ECF               	addlw	(low (_Semafori| 0))& (0+255)
  1765  02A8  0084               	movwf	4
  1766  02A9  1383               	bcf	3,7	;select IRP bank1
  1767  02AA  0800               	movf	0,w
  1768  02AB  00BE               	movwf	??_main+1
  1769  02AC  0A84               	incf	4,f
  1770  02AD  0800               	movf	0,w
  1771  02AE  00BF               	movwf	??_main+2
  1772  02AF  1283               	bcf	3,5	;RP0=0, select bank2
  1773  02B0  1703               	bsf	3,6	;RP1=1, select bank2
  1774  02B1  0864               	movf	main@lux_select^(0+256),w
  1775  02B2  1283               	bcf	3,5	;RP0=0, select bank0
  1776  02B3  1303               	bcf	3,6	;RP1=0, select bank0
  1777  02B4  00C0               	movwf	??_main+3
  1778  02B5  0740               	addwf	??_main+3,w
  1779  02B6  3E06               	addlw	6
  1780  02B7  073E               	addwf	??_main+1,w
  1781  02B8  00C1               	movwf	??_main+4
  1782  02B9  083F               	movf	??_main+2,w
  1783  02BA  1803               	skipnc
  1784  02BB  3E01               	addlw	1
  1785  02BC  00C2               	movwf	??_main+5
  1786  02BD  0841               	movf	??_main+4,w
  1787  02BE  0084               	movwf	4
  1788  02BF  1783               	bsf	3,7
  1789  02C0  1C42               	btfss	??_main+5,0
  1790  02C1  1383               	bcf	3,7
  1791  02C2  0800               	movf	0,w
  1792  02C3  00C3               	movwf	??_main+6
  1793  02C4  0A84               	incf	4,f
  1794  02C5  0800               	movf	0,w
  1795  02C6  00C4               	movwf	??_main+7
  1796  02C7  1283               	bcf	3,5	;RP0=0, select bank2
  1797  02C8  1703               	bsf	3,6	;RP1=1, select bank2
  1798  02C9  0862               	movf	main@time^(0+256),w
  1799  02CA  1283               	bcf	3,5	;RP0=0, select bank0
  1800  02CB  1303               	bcf	3,6	;RP1=0, select bank0
  1801  02CC  0243               	subwf	??_main+6,w
  1802  02CD  00C5               	movwf	??_main+8
  1803  02CE  1283               	bcf	3,5	;RP0=0, select bank2
  1804  02CF  1703               	bsf	3,6	;RP1=1, select bank2
  1805  02D0  0863               	movf	(main@time+1)^(0+256),w
  1806  02D1  1C03               	skipc
  1807  02D2  0A63               	incf	(main@time+1)^(0+256),w
  1808  02D3  1283               	bcf	3,5	;RP0=0, select bank0
  1809  02D4  1303               	bcf	3,6	;RP1=0, select bank0
  1810  02D5  0244               	subwf	??_main+7,w
  1811  02D6  00C6               	movwf	??_main+9
  1812  02D7  1FC6               	btfss	??_main+9,7
  1813  02D8  2ADA               	goto	u3141
  1814  02D9  2ADB               	goto	u3140
  1815  02DA                     u3141:	
  1816  02DA  2ADE               	goto	l3020
  1817  02DB                     u3140:	
  1818  02DB                     l3018:	
  1819                           
  1820                           ;main.c: 257:             {;main.c: 258:                 endCiclo.Bit = 1;
  1821  02DB  1283               	bcf	3,5	;RP0=0, select bank2
  1822  02DC  1703               	bsf	3,6	;RP1=1, select bank2
  1823  02DD  1461               	bsf	main@endCiclo^(0+256),0
  1824  02DE                     l3020:	
  1825                           
  1826                           ;main.c: 261:             if (lux_select == 2 && time == (*Semafori[n_semafori]).times[2
      +                          ])
  1827  02DE  3002               	movlw	2
  1828  02DF  1283               	bcf	3,5	;RP0=0, select bank2
  1829  02E0  1703               	bsf	3,6	;RP1=1, select bank2
  1830  02E1  0664               	xorwf	main@lux_select^(0+256),w
  1831  02E2  1D03               	btfss	3,2
  1832  02E3  2AE5               	goto	u3151
  1833  02E4  2AE6               	goto	u3150
  1834  02E5                     u3151:	
  1835  02E5  2B1A               	goto	l3026
  1836  02E6                     u3150:	
  1837  02E6                     l3022:	
  1838  02E6  1283               	bcf	3,5	;RP0=0, select bank0
  1839  02E7  1303               	bcf	3,6	;RP1=0, select bank0
  1840  02E8  0855               	movf	_n_semafori,w
  1841  02E9  00BD               	movwf	??_main
  1842  02EA  073D               	addwf	??_main,w
  1843  02EB  3ECF               	addlw	(low (_Semafori| 0))& (0+255)
  1844  02EC  0084               	movwf	4
  1845  02ED  1383               	bcf	3,7	;select IRP bank1
  1846  02EE  0800               	movf	0,w
  1847  02EF  00BE               	movwf	??_main+1
  1848  02F0  0A84               	incf	4,f
  1849  02F1  0800               	movf	0,w
  1850  02F2  00BF               	movwf	??_main+2
  1851  02F3  083E               	movf	??_main+1,w
  1852  02F4  3E0A               	addlw	10
  1853  02F5  00C0               	movwf	??_main+3
  1854  02F6  083F               	movf	??_main+2,w
  1855  02F7  1803               	skipnc
  1856  02F8  3E01               	addlw	1
  1857  02F9  3E00               	addlw	0
  1858  02FA  00C1               	movwf	??_main+4
  1859  02FB  0840               	movf	??_main+3,w
  1860  02FC  0084               	movwf	4
  1861  02FD  1783               	bsf	3,7
  1862  02FE  1C41               	btfss	??_main+4,0
  1863  02FF  1383               	bcf	3,7
  1864  0300  0800               	movf	0,w
  1865  0301  00C2               	movwf	??_main+5
  1866  0302  0A84               	incf	4,f
  1867  0303  0800               	movf	0,w
  1868  0304  00C3               	movwf	??_main+6
  1869  0305  1283               	bcf	3,5	;RP0=0, select bank2
  1870  0306  1703               	bsf	3,6	;RP1=1, select bank2
  1871  0307  0863               	movf	(main@time+1)^(0+256),w
  1872  0308  1283               	bcf	3,5	;RP0=0, select bank0
  1873  0309  1303               	bcf	3,6	;RP1=0, select bank0
  1874  030A  0643               	xorwf	??_main+6,w
  1875  030B  1D03               	skipz
  1876  030C  2B13               	goto	u3165
  1877  030D  1283               	bcf	3,5	;RP0=0, select bank2
  1878  030E  1703               	bsf	3,6	;RP1=1, select bank2
  1879  030F  0862               	movf	main@time^(0+256),w
  1880  0310  1283               	bcf	3,5	;RP0=0, select bank0
  1881  0311  1303               	bcf	3,6	;RP1=0, select bank0
  1882  0312  0642               	xorwf	??_main+5,w
  1883  0313                     u3165:	
  1884  0313  1D03               	skipz
  1885  0314  2B16               	goto	u3161
  1886  0315  2B17               	goto	u3160
  1887  0316                     u3161:	
  1888  0316  2B1A               	goto	l3026
  1889  0317                     u3160:	
  1890  0317                     l3024:	
  1891                           
  1892                           ;main.c: 262:             {;main.c: 263:                 endCiclo.Bit = 1;
  1893  0317  1283               	bcf	3,5	;RP0=0, select bank2
  1894  0318  1703               	bsf	3,6	;RP1=1, select bank2
  1895  0319  1461               	bsf	main@endCiclo^(0+256),0
  1896  031A                     l3026:	
  1897                           
  1898                           ;main.c: 266:             GetDigits((*Semafori[n_semafori]).times[lux_select] - time);
  1899  031A  1303               	bcf	3,6	;RP1=0, select bank0
  1900  031B  0855               	movf	_n_semafori,w
  1901  031C  00BD               	movwf	??_main
  1902  031D  073D               	addwf	??_main,w
  1903  031E  3ECF               	addlw	(low (_Semafori| 0))& (0+255)
  1904  031F  0084               	movwf	4
  1905  0320  1383               	bcf	3,7	;select IRP bank1
  1906  0321  0800               	movf	0,w
  1907  0322  00BE               	movwf	??_main+1
  1908  0323  0A84               	incf	4,f
  1909  0324  0800               	movf	0,w
  1910  0325  00BF               	movwf	??_main+2
  1911  0326  1283               	bcf	3,5	;RP0=0, select bank2
  1912  0327  1703               	bsf	3,6	;RP1=1, select bank2
  1913  0328  0864               	movf	main@lux_select^(0+256),w
  1914  0329  1283               	bcf	3,5	;RP0=0, select bank0
  1915  032A  1303               	bcf	3,6	;RP1=0, select bank0
  1916  032B  00C0               	movwf	??_main+3
  1917  032C  0740               	addwf	??_main+3,w
  1918  032D  3E06               	addlw	6
  1919  032E  073E               	addwf	??_main+1,w
  1920  032F  00C1               	movwf	??_main+4
  1921  0330  083F               	movf	??_main+2,w
  1922  0331  1803               	skipnc
  1923  0332  3E01               	addlw	1
  1924  0333  00C2               	movwf	??_main+5
  1925  0334  0841               	movf	??_main+4,w
  1926  0335  0084               	movwf	4
  1927  0336  1783               	bsf	3,7
  1928  0337  1C42               	btfss	??_main+5,0
  1929  0338  1383               	bcf	3,7
  1930  0339  0800               	movf	0,w
  1931  033A  00C3               	movwf	??_main+6
  1932  033B  0A84               	incf	4,f
  1933  033C  0800               	movf	0,w
  1934  033D  00C4               	movwf	??_main+7
  1935  033E  1283               	bcf	3,5	;RP0=0, select bank2
  1936  033F  1703               	bsf	3,6	;RP1=1, select bank2
  1937  0340  0862               	movf	main@time^(0+256),w
  1938  0341  1283               	bcf	3,5	;RP0=0, select bank0
  1939  0342  1303               	bcf	3,6	;RP1=0, select bank0
  1940  0343  0243               	subwf	??_main+6,w
  1941  0344  00B0               	movwf	GetDigits@Time
  1942  0345  1283               	bcf	3,5	;RP0=0, select bank2
  1943  0346  1703               	bsf	3,6	;RP1=1, select bank2
  1944  0347  0863               	movf	(main@time+1)^(0+256),w
  1945  0348  1C03               	skipc
  1946  0349  0A63               	incf	(main@time+1)^(0+256),w
  1947  034A  1283               	bcf	3,5	;RP0=0, select bank0
  1948  034B  1303               	bcf	3,6	;RP1=0, select bank0
  1949  034C  0244               	subwf	??_main+7,w
  1950  034D  00B1               	movwf	GetDigits@Time+1
  1951  034E  120A  158A  26F8  120A  118A  	fcall	_GetDigits
  1952  0353                     l3028:	
  1953                           
  1954                           ;main.c: 270:         if (disp != old_disp)
  1955  0353  1283               	bcf	3,5	;RP0=0, select bank0
  1956  0354  1303               	bcf	3,6	;RP1=0, select bank0
  1957  0355  085B               	movf	_disp,w
  1958  0356  065C               	xorwf	_old_disp,w
  1959  0357  1903               	skipnz
  1960  0358  2B5A               	goto	u3171
  1961  0359  2B5B               	goto	u3170
  1962  035A                     u3171:	
  1963  035A  2BC0               	goto	l3048
  1964  035B                     u3170:	
  1965  035B                     l3030:	
  1966                           
  1967                           ;main.c: 271:         {;main.c: 272:             old_disp = disp;
  1968  035B  085B               	movf	_disp,w
  1969  035C  00BD               	movwf	??_main
  1970  035D  083D               	movf	??_main,w
  1971  035E  00DC               	movwf	_old_disp
  1972                           
  1973                           ;main.c: 273:             switch (disp)
  1974  035F  2BAD               	goto	l3046
  1975  0360                     l3032:	
  1976                           
  1977                           ;main.c: 276:                 if (centinaia > 0)
  1978  0360  085D               	movf	_centinaia,w
  1979  0361  1903               	btfsc	3,2
  1980  0362  2B64               	goto	u3181
  1981  0363  2B65               	goto	u3180
  1982  0364                     u3181:	
  1983  0364  2BC0               	goto	l3048
  1984  0365                     u3180:	
  1985  0365                     l3034:	
  1986                           
  1987                           ;main.c: 277:                 {;main.c: 278:                     SetDisplay(1, 0, 0, dis
      +                          play[centinaia]);
  1988  0365  01A0               	clrf	SetDisplay@d2
  1989  0366  01A1               	clrf	SetDisplay@d3
  1990  0367  085D               	movf	_centinaia,w
  1991  0368  3E01               	addlw	low ((_display-__stringbase)| (0+32768))
  1992  0369  0084               	movwf	4
  1993  036A  120A  158A  2000  120A  118A  	fcall	stringdir
  1994  036F  00BD               	movwf	??_main
  1995  0370  083D               	movf	??_main,w
  1996  0371  00A2               	movwf	SetDisplay@value
  1997  0372  3001               	movlw	1
  1998  0373  120A  158A  2454  120A  118A  	fcall	_SetDisplay
  1999  0378  2BC0               	goto	l3048
  2000  0379                     l3036:	
  2001                           
  2002                           ;main.c: 282:                 if (decine > 0 || centinaia > 0)
  2003  0379  085E               	movf	_decine,w
  2004  037A  1D03               	btfss	3,2
  2005  037B  2B7D               	goto	u3191
  2006  037C  2B7E               	goto	u3190
  2007  037D                     u3191:	
  2008  037D  2B83               	goto	l3040
  2009  037E                     u3190:	
  2010  037E                     l3038:	
  2011  037E  085D               	movf	_centinaia,w
  2012  037F  1903               	btfsc	3,2
  2013  0380  2B82               	goto	u3201
  2014  0381  2B83               	goto	u3200
  2015  0382                     u3201:	
  2016  0382  2BC0               	goto	l3048
  2017  0383                     u3200:	
  2018  0383                     l3040:	
  2019                           
  2020                           ;main.c: 283:                 {;main.c: 284:                     SetDisplay(0, 1, 0, dis
      +                          play[decine]);
  2021  0383  01A0               	clrf	SetDisplay@d2
  2022  0384  0AA0               	incf	SetDisplay@d2,f
  2023  0385  01A1               	clrf	SetDisplay@d3
  2024  0386  085E               	movf	_decine,w
  2025  0387  3E01               	addlw	low ((_display-__stringbase)| (0+32768))
  2026  0388  0084               	movwf	4
  2027  0389  120A  158A  2000  120A  118A  	fcall	stringdir
  2028  038E  00BD               	movwf	??_main
  2029  038F  083D               	movf	??_main,w
  2030  0390  00A2               	movwf	SetDisplay@value
  2031  0391  3000               	movlw	0
  2032  0392  120A  158A  2454  120A  118A  	fcall	_SetDisplay
  2033  0397  2BC0               	goto	l3048
  2034  0398                     l3042:	
  2035                           
  2036                           ;main.c: 288:                 SetDisplay(0, 0, 1, display[unita]);
  2037  0398  01A0               	clrf	SetDisplay@d2
  2038  0399  01A1               	clrf	SetDisplay@d3
  2039  039A  0AA1               	incf	SetDisplay@d3,f
  2040  039B  085F               	movf	_unita,w
  2041  039C  3E01               	addlw	low ((_display-__stringbase)| (0+32768))
  2042  039D  0084               	movwf	4
  2043  039E  120A  158A  2000  120A  118A  	fcall	stringdir
  2044  03A3  00BD               	movwf	??_main
  2045  03A4  083D               	movf	??_main,w
  2046  03A5  00A2               	movwf	SetDisplay@value
  2047  03A6  3000               	movlw	0
  2048  03A7  120A  158A  2454  120A  118A  	fcall	_SetDisplay
  2049                           
  2050                           ;main.c: 289:                 break;
  2051  03AC  2BC0               	goto	l3048
  2052  03AD                     l3046:	
  2053  03AD  085B               	movf	_disp,w
  2054  03AE  00BD               	movwf	??_main
  2055  03AF  01BE               	clrf	??_main+1
  2056                           
  2057                           ; Switch on 2 bytes has been partitioned into a top level switch of size 1, and 1 sub-sw
      +                          itches
  2058                           ; Switch size 1, requested type "simple"
  2059                           ; Number of cases is 1, Range of values is 0 to 0
  2060                           ; switch strategies available:
  2061                           ; Name         Instructions Cycles
  2062                           ; simple_byte            4     3 (average)
  2063                           ; direct_byte           11     8 (fixed)
  2064                           ; jumptable            260     6 (fixed)
  2065                           ;	Chosen strategy is simple_byte
  2066  03B0  083E               	movf	??_main+1,w
  2067  03B1  3A00               	xorlw	0	; case 0
  2068  03B2  1903               	skipnz
  2069  03B3  2BB5               	goto	l3190
  2070  03B4  2BC0               	goto	l3048
  2071  03B5                     l3190:	
  2072                           
  2073                           ; Switch size 1, requested type "simple"
  2074                           ; Number of cases is 3, Range of values is 0 to 2
  2075                           ; switch strategies available:
  2076                           ; Name         Instructions Cycles
  2077                           ; simple_byte           10     6 (average)
  2078                           ; direct_byte           17     8 (fixed)
  2079                           ; jumptable            260     6 (fixed)
  2080                           ;	Chosen strategy is simple_byte
  2081  03B5  083D               	movf	??_main,w
  2082  03B6  3A00               	xorlw	0	; case 0
  2083  03B7  1903               	skipnz
  2084  03B8  2B60               	goto	l3032
  2085  03B9  3A01               	xorlw	1	; case 1
  2086  03BA  1903               	skipnz
  2087  03BB  2B79               	goto	l3036
  2088  03BC  3A03               	xorlw	3	; case 2
  2089  03BD  1903               	skipnz
  2090  03BE  2B98               	goto	l3042
  2091  03BF  2BC0               	goto	l3048
  2092  03C0                     l3048:	
  2093                           
  2094                           ;main.c: 292:         disp = (disp + 1) % 3;
  2095  03C0  3003               	movlw	3
  2096  03C1  1283               	bcf	3,5	;RP0=0, select bank0
  2097  03C2  1303               	bcf	3,6	;RP1=0, select bank0
  2098  03C3  00A0               	movwf	___awmod@divisor
  2099  03C4  3000               	movlw	0
  2100  03C5  00A1               	movwf	___awmod@divisor+1
  2101  03C6  085B               	movf	_disp,w
  2102  03C7  3E01               	addlw	1
  2103  03C8  00A2               	movwf	___awmod@dividend
  2104  03C9  3000               	movlw	0
  2105  03CA  1803               	skipnc
  2106  03CB  3001               	movlw	1
  2107  03CC  00A3               	movwf	___awmod@dividend+1
  2108  03CD  120A  158A  2634  120A  118A  	fcall	___awmod
  2109  03D2  1283               	bcf	3,5	;RP0=0, select bank0
  2110  03D3  1303               	bcf	3,6	;RP1=0, select bank0
  2111  03D4  0820               	movf	?___awmod,w
  2112  03D5  00BD               	movwf	??_main
  2113  03D6  083D               	movf	??_main,w
  2114  03D7  00DB               	movwf	_disp
  2115  03D8                     l3050:	
  2116                           
  2117                           ;main.c: 298:         if (secondPassed.Bit && cycled.Bit)
  2118  03D8  1C61               	btfss	_secondPassed,0
  2119  03D9  2BDB               	goto	u3211
  2120  03DA  2BDC               	goto	u3210
  2121  03DB                     u3211:	
  2122  03DB  2BE2               	goto	l251
  2123  03DC                     u3210:	
  2124  03DC                     l3052:	
  2125  03DC  1C60               	btfss	_cycled,0
  2126  03DD  2BDF               	goto	u3221
  2127  03DE  2BE0               	goto	u3220
  2128  03DF                     u3221:	
  2129  03DF  2BE2               	goto	l251
  2130  03E0                     u3220:	
  2131  03E0                     l3054:	
  2132                           
  2133                           ;main.c: 299:         {;main.c: 300:             secondPassed.Bit = 0;
  2134  03E0  1061               	bcf	_secondPassed,0
  2135                           
  2136                           ;main.c: 301:             cycled.Bit = 0;
  2137  03E1  1060               	bcf	_cycled,0
  2138  03E2                     l251:	
  2139                           ;main.c: 302:         }
  2140                           
  2141                           
  2142                           ;main.c: 304:         if (secondPassed.Bit && !cycled.Bit)
  2143  03E2  1C61               	btfss	_secondPassed,0
  2144  03E3  2BE5               	goto	u3231
  2145  03E4  2BE6               	goto	u3230
  2146  03E5                     u3231:	
  2147  03E5  2BEB               	goto	l3060
  2148  03E6                     u3230:	
  2149  03E6                     l3056:	
  2150  03E6  1860               	btfsc	_cycled,0
  2151  03E7  2BE9               	goto	u3241
  2152  03E8  2BEA               	goto	u3240
  2153  03E9                     u3241:	
  2154  03E9  2BEB               	goto	l3060
  2155  03EA                     u3240:	
  2156  03EA                     l3058:	
  2157                           
  2158                           ;main.c: 305:         {;main.c: 306:             cycled.Bit = 1;
  2159  03EA  1460               	bsf	_cycled,0
  2160  03EB                     l3060:	
  2161                           
  2162                           ;main.c: 310:         if ((dataFromGateway[1] & 0x7F) == 0x08)
  2163  03EB  307F               	movlw	127
  2164  03EC  1683               	bsf	3,5	;RP0=1, select bank1
  2165  03ED  1303               	bcf	3,6	;RP1=0, select bank1
  2166  03EE  0521               	andwf	(_dataFromGateway^(0+128)+1),w
  2167  03EF  1283               	bcf	3,5	;RP0=0, select bank0
  2168  03F0  1303               	bcf	3,6	;RP1=0, select bank0
  2169  03F1  00BD               	movwf	??_main
  2170  03F2  3008               	movlw	8
  2171  03F3  063D               	xorwf	??_main,w
  2172  03F4  1D03               	btfss	3,2
  2173  03F5  2BF7               	goto	u3251
  2174  03F6  2BF8               	goto	u3250
  2175  03F7                     u3251:	
  2176  03F7  2CAE               	goto	l3086
  2177  03F8                     u3250:	
  2178  03F8                     l3062:	
  2179                           
  2180                           ;main.c: 311:         {;main.c: 312:             for (int i = 0; i < 4; i++)
  2181  03F8  1283               	bcf	3,5	;RP0=0, select bank2
  2182  03F9  1703               	bsf	3,6	;RP1=1, select bank2
  2183  03FA  01ED               	clrf	main@i_446^(0+256)
  2184  03FB  01EE               	clrf	(main@i_446+1)^(0+256)
  2185  03FC                     l3064:	
  2186  03FC  086E               	movf	(main@i_446+1)^(0+256),w
  2187  03FD  3A80               	xorlw	128
  2188  03FE  00FF               	movwf	btemp+1
  2189  03FF  3080               	movlw	128
  2190  0400  027F               	subwf	btemp+1,w
  2191  0401  1D03               	skipz
  2192  0402  2C05               	goto	u3265
  2193  0403  3004               	movlw	4
  2194  0404  026D               	subwf	main@i_446^(0+256),w
  2195  0405                     u3265:	
  2196  0405  1C03               	skipc
  2197  0406  2C08               	goto	u3261
  2198  0407  2C09               	goto	u3260
  2199  0408                     u3261:	
  2200  0408  2C0A               	goto	l3068
  2201  0409                     u3260:	
  2202  0409  2C86               	goto	l3074
  2203  040A                     l3068:	
  2204                           
  2205                           ;main.c: 313:             {;main.c: 314:                 sendByte((0x01 << (i + 1)), 0x0
      +                          1, motorcycle[i]);
  2206  040A  1283               	bcf	3,5	;RP0=0, select bank0
  2207  040B  1303               	bcf	3,6	;RP1=0, select bank0
  2208  040C  01B4               	clrf	sendByte@byte1
  2209  040D  0AB4               	incf	sendByte@byte1,f
  2210  040E  1283               	bcf	3,5	;RP0=0, select bank2
  2211  040F  1703               	bsf	3,6	;RP1=1, select bank2
  2212  0410  086D               	movf	main@i_446^(0+256),w
  2213  0411  3E51               	addlw	(low (_motorcycle| 0))& (0+255)
  2214  0412  0084               	movwf	4
  2215  0413  1383               	bcf	3,7	;select IRP bank0
  2216  0414  0800               	movf	0,w
  2217  0415  1283               	bcf	3,5	;RP0=0, select bank0
  2218  0416  1303               	bcf	3,6	;RP1=0, select bank0
  2219  0417  00BD               	movwf	??_main
  2220  0418  083D               	movf	??_main,w
  2221  0419  00B5               	movwf	sendByte@valore
  2222  041A  3001               	movlw	1
  2223  041B  00BE               	movwf	??_main+1
  2224  041C  1283               	bcf	3,5	;RP0=0, select bank2
  2225  041D  1703               	bsf	3,6	;RP1=1, select bank2
  2226  041E  086D               	movf	main@i_446^(0+256),w
  2227  041F  3E01               	addlw	1
  2228  0420  3E01               	addlw	1
  2229  0421  1283               	bcf	3,5	;RP0=0, select bank0
  2230  0422  1303               	bcf	3,6	;RP1=0, select bank0
  2231  0423  2C26               	goto	u3274
  2232  0424                     u3275:	
  2233  0424  1003               	clrc
  2234  0425  0DBE               	rlf	??_main+1,f
  2235  0426                     u3274:	
  2236  0426  3EFF               	addlw	-1
  2237  0427  1D03               	skipz
  2238  0428  2C24               	goto	u3275
  2239  0429  083E               	movf	??_main+1,w
  2240  042A  120A  158A  2561  120A  118A  	fcall	_sendByte
  2241                           
  2242                           ;main.c: 315:                 sendByte((0x01 << (i + 1)), 0x10, car[i]);
  2243  042F  3010               	movlw	16
  2244  0430  1283               	bcf	3,5	;RP0=0, select bank0
  2245  0431  1303               	bcf	3,6	;RP1=0, select bank0
  2246  0432  00BD               	movwf	??_main
  2247  0433  083D               	movf	??_main,w
  2248  0434  00B4               	movwf	sendByte@byte1
  2249  0435  1283               	bcf	3,5	;RP0=0, select bank2
  2250  0436  1703               	bsf	3,6	;RP1=1, select bank2
  2251  0437  086D               	movf	main@i_446^(0+256),w
  2252  0438  3E4D               	addlw	(low (_car| 0))& (0+255)
  2253  0439  0084               	movwf	4
  2254  043A  1383               	bcf	3,7	;select IRP bank0
  2255  043B  0800               	movf	0,w
  2256  043C  1283               	bcf	3,5	;RP0=0, select bank0
  2257  043D  1303               	bcf	3,6	;RP1=0, select bank0
  2258  043E  00BE               	movwf	??_main+1
  2259  043F  083E               	movf	??_main+1,w
  2260  0440  00B5               	movwf	sendByte@valore
  2261  0441  3001               	movlw	1
  2262  0442  00BF               	movwf	??_main+2
  2263  0443  1283               	bcf	3,5	;RP0=0, select bank2
  2264  0444  1703               	bsf	3,6	;RP1=1, select bank2
  2265  0445  086D               	movf	main@i_446^(0+256),w
  2266  0446  3E01               	addlw	1
  2267  0447  3E01               	addlw	1
  2268  0448  1283               	bcf	3,5	;RP0=0, select bank0
  2269  0449  1303               	bcf	3,6	;RP1=0, select bank0
  2270  044A  2C4D               	goto	u3284
  2271  044B                     u3285:	
  2272  044B  1003               	clrc
  2273  044C  0DBF               	rlf	??_main+2,f
  2274  044D                     u3284:	
  2275  044D  3EFF               	addlw	-1
  2276  044E  1D03               	skipz
  2277  044F  2C4B               	goto	u3285
  2278  0450  083F               	movf	??_main+2,w
  2279  0451  120A  158A  2561  120A  118A  	fcall	_sendByte
  2280                           
  2281                           ;main.c: 316:                 sendByte((0x01 << (i + 1)), 0x11, truck[i]);
  2282  0456  3011               	movlw	17
  2283  0457  1283               	bcf	3,5	;RP0=0, select bank0
  2284  0458  1303               	bcf	3,6	;RP1=0, select bank0
  2285  0459  00BD               	movwf	??_main
  2286  045A  083D               	movf	??_main,w
  2287  045B  00B4               	movwf	sendByte@byte1
  2288  045C  1283               	bcf	3,5	;RP0=0, select bank2
  2289  045D  1703               	bsf	3,6	;RP1=1, select bank2
  2290  045E  086D               	movf	main@i_446^(0+256),w
  2291  045F  3EAF               	addlw	(low (_truck| 0))& (0+255)
  2292  0460  0084               	movwf	4
  2293  0461  1383               	bcf	3,7	;select IRP bank1
  2294  0462  0800               	movf	0,w
  2295  0463  1283               	bcf	3,5	;RP0=0, select bank0
  2296  0464  1303               	bcf	3,6	;RP1=0, select bank0
  2297  0465  00BE               	movwf	??_main+1
  2298  0466  083E               	movf	??_main+1,w
  2299  0467  00B5               	movwf	sendByte@valore
  2300  0468  3001               	movlw	1
  2301  0469  00BF               	movwf	??_main+2
  2302  046A  1283               	bcf	3,5	;RP0=0, select bank2
  2303  046B  1703               	bsf	3,6	;RP1=1, select bank2
  2304  046C  086D               	movf	main@i_446^(0+256),w
  2305  046D  3E01               	addlw	1
  2306  046E  3E01               	addlw	1
  2307  046F  1283               	bcf	3,5	;RP0=0, select bank0
  2308  0470  1303               	bcf	3,6	;RP1=0, select bank0
  2309  0471  2C74               	goto	u3294
  2310  0472                     u3295:	
  2311  0472  1003               	clrc
  2312  0473  0DBF               	rlf	??_main+2,f
  2313  0474                     u3294:	
  2314  0474  3EFF               	addlw	-1
  2315  0475  1D03               	skipz
  2316  0476  2C72               	goto	u3295
  2317  0477  083F               	movf	??_main+2,w
  2318  0478  120A  158A  2561  120A  118A  	fcall	_sendByte
  2319  047D                     l3070:	
  2320                           
  2321                           ;main.c: 317:             }
  2322  047D  3001               	movlw	1
  2323  047E  1283               	bcf	3,5	;RP0=0, select bank2
  2324  047F  1703               	bsf	3,6	;RP1=1, select bank2
  2325  0480  07ED               	addwf	main@i_446^(0+256),f
  2326  0481  1803               	skipnc
  2327  0482  0AEE               	incf	(main@i_446+1)^(0+256),f
  2328  0483  3000               	movlw	0
  2329  0484  07EE               	addwf	(main@i_446+1)^(0+256),f
  2330  0485  2BFC               	goto	l3064
  2331  0486                     l3074:	
  2332                           
  2333                           ;main.c: 318:             for (int i = 0; i < 4; i++)
  2334  0486  1283               	bcf	3,5	;RP0=0, select bank2
  2335  0487  1703               	bsf	3,6	;RP1=1, select bank2
  2336  0488  01E7               	clrf	main@i_447^(0+256)
  2337  0489  01E8               	clrf	(main@i_447+1)^(0+256)
  2338  048A                     l3076:	
  2339  048A  0868               	movf	(main@i_447+1)^(0+256),w
  2340  048B  3A80               	xorlw	128
  2341  048C  00FF               	movwf	btemp+1
  2342  048D  3080               	movlw	128
  2343  048E  027F               	subwf	btemp+1,w
  2344  048F  1D03               	skipz
  2345  0490  2C93               	goto	u3305
  2346  0491  3004               	movlw	4
  2347  0492  0267               	subwf	main@i_447^(0+256),w
  2348  0493                     u3305:	
  2349  0493  1C03               	skipc
  2350  0494  2C96               	goto	u3301
  2351  0495  2C97               	goto	u3300
  2352  0496                     u3301:	
  2353  0496  2C98               	goto	l3080
  2354  0497                     u3300:	
  2355  0497  2CAE               	goto	l3086
  2356  0498                     l3080:	
  2357                           
  2358                           ;main.c: 319:             {;main.c: 320:                 motorcycle[i] = 0;
  2359  0498  1283               	bcf	3,5	;RP0=0, select bank2
  2360  0499  1703               	bsf	3,6	;RP1=1, select bank2
  2361  049A  0867               	movf	main@i_447^(0+256),w
  2362  049B  3E51               	addlw	(low (_motorcycle| 0))& (0+255)
  2363  049C  0084               	movwf	4
  2364  049D  1383               	bcf	3,7	;select IRP bank0
  2365  049E  0180               	clrf	0
  2366                           
  2367                           ;main.c: 321:                 car[i] = 0;
  2368  049F  0867               	movf	main@i_447^(0+256),w
  2369  04A0  3E4D               	addlw	(low (_car| 0))& (0+255)
  2370  04A1  0084               	movwf	4
  2371  04A2  0180               	clrf	0
  2372                           
  2373                           ;main.c: 322:                 truck[i] = 0;
  2374  04A3  0867               	movf	main@i_447^(0+256),w
  2375  04A4  3EAF               	addlw	(low (_truck| 0))& (0+255)
  2376  04A5  0084               	movwf	4
  2377  04A6  0180               	clrf	0
  2378  04A7                     l3082:	
  2379                           
  2380                           ;main.c: 323:             }
  2381  04A7  3001               	movlw	1
  2382  04A8  07E7               	addwf	main@i_447^(0+256),f
  2383  04A9  1803               	skipnc
  2384  04AA  0AE8               	incf	(main@i_447+1)^(0+256),f
  2385  04AB  3000               	movlw	0
  2386  04AC  07E8               	addwf	(main@i_447+1)^(0+256),f
  2387  04AD  2C8A               	goto	l3076
  2388  04AE                     l3086:	
  2389                           
  2390                           ;main.c: 334:         if ((dataFromGateway[1] & 0x7F) == 0x0A)
  2391  04AE  307F               	movlw	127
  2392  04AF  1683               	bsf	3,5	;RP0=1, select bank1
  2393  04B0  1303               	bcf	3,6	;RP1=0, select bank1
  2394  04B1  0521               	andwf	(_dataFromGateway^(0+128)+1),w
  2395  04B2  1283               	bcf	3,5	;RP0=0, select bank0
  2396  04B3  1303               	bcf	3,6	;RP1=0, select bank0
  2397  04B4  00BD               	movwf	??_main
  2398  04B5  300A               	movlw	10
  2399  04B6  063D               	xorwf	??_main,w
  2400  04B7  1D03               	btfss	3,2
  2401  04B8  2CBA               	goto	u3311
  2402  04B9  2CBB               	goto	u3310
  2403  04BA                     u3311:	
  2404  04BA  288C               	goto	l2936
  2405  04BB                     u3310:	
  2406  04BB                     l3088:	
  2407                           
  2408                           ;main.c: 335:         {;main.c: 336:             temp = (char)map((ADC_Read(0) >> 2), 0,
      +                           255, -20, 60);
  2409  04BB  3000               	movlw	0
  2410  04BC  120A  158A  24A5  120A  118A  	fcall	_ADC_Read
  2411  04C1  1283               	bcf	3,5	;RP0=0, select bank0
  2412  04C2  1303               	bcf	3,6	;RP1=0, select bank0
  2413  04C3  0820               	movf	?_ADC_Read,w
  2414  04C4  00BD               	movwf	??_main
  2415  04C5  0821               	movf	?_ADC_Read+1,w
  2416  04C6  00BE               	movwf	??_main+1
  2417  04C7  0D3E               	rlf	??_main+1,w
  2418  04C8  0CBE               	rrf	??_main+1,f
  2419  04C9  0CBD               	rrf	??_main,f
  2420  04CA  0D3E               	rlf	??_main+1,w
  2421  04CB  0CBE               	rrf	??_main+1,f
  2422  04CC  0CBD               	rrf	??_main,f
  2423  04CD  083D               	movf	??_main,w
  2424  04CE  00B0               	movwf	map@x
  2425  04CF  083E               	movf	??_main+1,w
  2426  04D0  00B1               	movwf	map@x+1
  2427  04D1  3000               	movlw	0
  2428  04D2  00B2               	movwf	map@in_min
  2429  04D3  00B3               	movwf	map@in_min+1
  2430  04D4  30FF               	movlw	255
  2431  04D5  00B4               	movwf	map@in_max
  2432  04D6  3000               	movlw	0
  2433  04D7  00B5               	movwf	map@in_max+1
  2434  04D8  30EC               	movlw	236
  2435  04D9  00B6               	movwf	map@out_min
  2436  04DA  30FF               	movlw	255
  2437  04DB  00B7               	movwf	map@out_min+1
  2438  04DC  303C               	movlw	60
  2439  04DD  00B8               	movwf	map@out_max
  2440  04DE  3000               	movlw	0
  2441  04DF  00B9               	movwf	map@out_max+1
  2442  04E0  120A  158A  24F2  120A  118A  	fcall	_map
  2443  04E5  1283               	bcf	3,5	;RP0=0, select bank0
  2444  04E6  1303               	bcf	3,6	;RP1=0, select bank0
  2445  04E7  0830               	movf	?_map,w
  2446  04E8  00BF               	movwf	??_main+2
  2447  04E9  083F               	movf	??_main+2,w
  2448  04EA  1283               	bcf	3,5	;RP0=0, select bank2
  2449  04EB  1703               	bsf	3,6	;RP1=1, select bank2
  2450  04EC  00DE               	movwf	main@temp^(0+256)
  2451                           
  2452                           ;main.c: 337:             umidita = (char)map((ADC_Read(1) >> 2), 0, 255, 0, 100);
  2453  04ED  3001               	movlw	1
  2454  04EE  120A  158A  24A5  120A  118A  	fcall	_ADC_Read
  2455  04F3  1283               	bcf	3,5	;RP0=0, select bank0
  2456  04F4  1303               	bcf	3,6	;RP1=0, select bank0
  2457  04F5  0820               	movf	?_ADC_Read,w
  2458  04F6  00BD               	movwf	??_main
  2459  04F7  0821               	movf	?_ADC_Read+1,w
  2460  04F8  00BE               	movwf	??_main+1
  2461  04F9  0D3E               	rlf	??_main+1,w
  2462  04FA  0CBE               	rrf	??_main+1,f
  2463  04FB  0CBD               	rrf	??_main,f
  2464  04FC  0D3E               	rlf	??_main+1,w
  2465  04FD  0CBE               	rrf	??_main+1,f
  2466  04FE  0CBD               	rrf	??_main,f
  2467  04FF  083D               	movf	??_main,w
  2468  0500  00B0               	movwf	map@x
  2469  0501  083E               	movf	??_main+1,w
  2470  0502  00B1               	movwf	map@x+1
  2471  0503  3000               	movlw	0
  2472  0504  00B2               	movwf	map@in_min
  2473  0505  00B3               	movwf	map@in_min+1
  2474  0506  30FF               	movlw	255
  2475  0507  00B4               	movwf	map@in_max
  2476  0508  3000               	movlw	0
  2477  0509  00B5               	movwf	map@in_max+1
  2478  050A  3000               	movlw	0
  2479  050B  00B6               	movwf	map@out_min
  2480  050C  00B7               	movwf	map@out_min+1
  2481  050D  3064               	movlw	100
  2482  050E  00B8               	movwf	map@out_max
  2483  050F  3000               	movlw	0
  2484  0510  00B9               	movwf	map@out_max+1
  2485  0511  120A  158A  24F2  120A  118A  	fcall	_map
  2486  0516  1283               	bcf	3,5	;RP0=0, select bank0
  2487  0517  1303               	bcf	3,6	;RP1=0, select bank0
  2488  0518  0830               	movf	?_map,w
  2489  0519  00BF               	movwf	??_main+2
  2490  051A  083F               	movf	??_main+2,w
  2491  051B  1283               	bcf	3,5	;RP0=0, select bank2
  2492  051C  1703               	bsf	3,6	;RP1=1, select bank2
  2493  051D  00DF               	movwf	main@umidita^(0+256)
  2494                           
  2495                           ;main.c: 338:             pressione = (char)map((ADC_Read(5) >> 2), 0, 255, 0, 100);
  2496  051E  3005               	movlw	5
  2497  051F  120A  158A  24A5  120A  118A  	fcall	_ADC_Read
  2498  0524  1283               	bcf	3,5	;RP0=0, select bank0
  2499  0525  1303               	bcf	3,6	;RP1=0, select bank0
  2500  0526  0820               	movf	?_ADC_Read,w
  2501  0527  00BD               	movwf	??_main
  2502  0528  0821               	movf	?_ADC_Read+1,w
  2503  0529  00BE               	movwf	??_main+1
  2504  052A  0D3E               	rlf	??_main+1,w
  2505  052B  0CBE               	rrf	??_main+1,f
  2506  052C  0CBD               	rrf	??_main,f
  2507  052D  0D3E               	rlf	??_main+1,w
  2508  052E  0CBE               	rrf	??_main+1,f
  2509  052F  0CBD               	rrf	??_main,f
  2510  0530  083D               	movf	??_main,w
  2511  0531  00B0               	movwf	map@x
  2512  0532  083E               	movf	??_main+1,w
  2513  0533  00B1               	movwf	map@x+1
  2514  0534  3000               	movlw	0
  2515  0535  00B2               	movwf	map@in_min
  2516  0536  00B3               	movwf	map@in_min+1
  2517  0537  30FF               	movlw	255
  2518  0538  00B4               	movwf	map@in_max
  2519  0539  3000               	movlw	0
  2520  053A  00B5               	movwf	map@in_max+1
  2521  053B  3000               	movlw	0
  2522  053C  00B6               	movwf	map@out_min
  2523  053D  00B7               	movwf	map@out_min+1
  2524  053E  3064               	movlw	100
  2525  053F  00B8               	movwf	map@out_max
  2526  0540  3000               	movlw	0
  2527  0541  00B9               	movwf	map@out_max+1
  2528  0542  120A  158A  24F2  120A  118A  	fcall	_map
  2529  0547  1283               	bcf	3,5	;RP0=0, select bank0
  2530  0548  1303               	bcf	3,6	;RP1=0, select bank0
  2531  0549  0830               	movf	?_map,w
  2532  054A  00BF               	movwf	??_main+2
  2533  054B  083F               	movf	??_main+2,w
  2534  054C  1283               	bcf	3,5	;RP0=0, select bank2
  2535  054D  1703               	bsf	3,6	;RP1=1, select bank2
  2536  054E  00E0               	movwf	main@pressione^(0+256)
  2537  054F                     l3090:	
  2538                           
  2539                           ;main.c: 339:             sendByte(0x02, 0x00, temp);
  2540  054F  1283               	bcf	3,5	;RP0=0, select bank0
  2541  0550  1303               	bcf	3,6	;RP1=0, select bank0
  2542  0551  01B4               	clrf	sendByte@byte1
  2543  0552  1283               	bcf	3,5	;RP0=0, select bank2
  2544  0553  1703               	bsf	3,6	;RP1=1, select bank2
  2545  0554  085E               	movf	main@temp^(0+256),w
  2546  0555  1283               	bcf	3,5	;RP0=0, select bank0
  2547  0556  1303               	bcf	3,6	;RP1=0, select bank0
  2548  0557  00BD               	movwf	??_main
  2549  0558  083D               	movf	??_main,w
  2550  0559  00B5               	movwf	sendByte@valore
  2551  055A  3002               	movlw	2
  2552  055B  120A  158A  2561  120A  118A  	fcall	_sendByte
  2553  0560                     l3092:	
  2554                           
  2555                           ;main.c: 340:             sendByte(0x04, 0x00, umidita);
  2556  0560  1283               	bcf	3,5	;RP0=0, select bank0
  2557  0561  1303               	bcf	3,6	;RP1=0, select bank0
  2558  0562  01B4               	clrf	sendByte@byte1
  2559  0563  1283               	bcf	3,5	;RP0=0, select bank2
  2560  0564  1703               	bsf	3,6	;RP1=1, select bank2
  2561  0565  085F               	movf	main@umidita^(0+256),w
  2562  0566  1283               	bcf	3,5	;RP0=0, select bank0
  2563  0567  1303               	bcf	3,6	;RP1=0, select bank0
  2564  0568  00BD               	movwf	??_main
  2565  0569  083D               	movf	??_main,w
  2566  056A  00B5               	movwf	sendByte@valore
  2567  056B  3004               	movlw	4
  2568  056C  120A  158A  2561  120A  118A  	fcall	_sendByte
  2569  0571                     l3094:	
  2570                           
  2571                           ;main.c: 341:             sendByte(0x06, 0x00, pressione);
  2572  0571  1283               	bcf	3,5	;RP0=0, select bank0
  2573  0572  1303               	bcf	3,6	;RP1=0, select bank0
  2574  0573  01B4               	clrf	sendByte@byte1
  2575  0574  1283               	bcf	3,5	;RP0=0, select bank2
  2576  0575  1703               	bsf	3,6	;RP1=1, select bank2
  2577  0576  0860               	movf	main@pressione^(0+256),w
  2578  0577  1283               	bcf	3,5	;RP0=0, select bank0
  2579  0578  1303               	bcf	3,6	;RP1=0, select bank0
  2580  0579  00BD               	movwf	??_main
  2581  057A  083D               	movf	??_main,w
  2582  057B  00B5               	movwf	sendByte@valore
  2583  057C  3006               	movlw	6
  2584  057D  120A  158A  2561  120A  118A  	fcall	_sendByte
  2585  0582  288C               	goto	l2936
  2586  0583  120A  118A  280E   	ljmp	start
  2587  0586                     __end_of_main:	
  2588                           
  2589                           	psect	text1
  2590  0D61                     __ptext1:	
  2591 ;; *************** function _sendByte *****************
  2592 ;; Defined at:
  2593 ;;		line 410 in file "main.c"
  2594 ;; Parameters:    Size  Location     Type
  2595 ;;  byte0           1    wreg     unsigned char 
  2596 ;;  byte1           1   20[BANK0 ] unsigned char 
  2597 ;;  valore          1   21[BANK0 ] unsigned char 
  2598 ;; Auto vars:     Size  Location     Type
  2599 ;;  byte0           1   25[BANK0 ] unsigned char 
  2600 ;;  i               2   27[BANK0 ] int 
  2601 ;;  txByte          1   26[BANK0 ] PTR unsigned char 
  2602 ;;		 -> BuildByte@txByte(5), 
  2603 ;; Return value:  Size  Location     Type
  2604 ;;                  1    wreg      void 
  2605 ;; Registers used:
  2606 ;;		wreg, fsr0l, fsr0h, status,2, status,0, btemp+1, pclath, cstack
  2607 ;; Tracked objects:
  2608 ;;		On entry : 0/0
  2609 ;;		On exit  : 0/0
  2610 ;;		Unchanged: 0/0
  2611 ;; Data sizes:     COMMON   BANK0   BANK1   BANK3   BANK2
  2612 ;;      Params:         0       2       0       0       0
  2613 ;;      Locals:         0       4       0       0       0
  2614 ;;      Temps:          0       3       0       0       0
  2615 ;;      Totals:         0       9       0       0       0
  2616 ;;Total ram usage:        9 bytes
  2617 ;; Hardware stack levels used:    1
  2618 ;; Hardware stack levels required when called:    4
  2619 ;; This function calls:
  2620 ;;		_BuildByte
  2621 ;;		_UART_Write_Text
  2622 ;; This function is called by:
  2623 ;;		_main
  2624 ;; This function uses a non-reentrant model
  2625 ;;
  2626                           
  2627                           
  2628                           ;psect for function _sendByte
  2629  0D61                     _sendByte:	
  2630                           
  2631                           ;incstack = 0
  2632                           ; Regs used in _sendByte: [wreg-fsr0h+status,2+status,0+btemp+1+pclath+cstack]
  2633                           ;sendByte@byte0 stored from wreg
  2634  0D61  1283               	bcf	3,5	;RP0=0, select bank0
  2635  0D62  1303               	bcf	3,6	;RP1=0, select bank0
  2636  0D63  00B9               	movwf	sendByte@byte0
  2637  0D64                     l2848:	
  2638                           
  2639                           ;main.c: 410: void sendByte(char byte0, char byte1, char valore);main.c: 411: {;main.c: 
      +                          412:     char *txByte;;main.c: 413:     txByte = BuildByte(byte0, byte1, valore);
  2640  0D64  0834               	movf	sendByte@byte1,w
  2641  0D65  00B6               	movwf	??_sendByte
  2642  0D66  0836               	movf	??_sendByte,w
  2643  0D67  00A0               	movwf	BuildByte@byte1
  2644  0D68  0835               	movf	sendByte@valore,w
  2645  0D69  00B7               	movwf	??_sendByte+1
  2646  0D6A  0837               	movf	??_sendByte+1,w
  2647  0D6B  00A1               	movwf	BuildByte@valore
  2648  0D6C  0839               	movf	sendByte@byte0,w
  2649  0D6D  120A  118A  2674  120A  158A  	fcall	_BuildByte
  2650  0D72  1283               	bcf	3,5	;RP0=0, select bank0
  2651  0D73  1303               	bcf	3,6	;RP1=0, select bank0
  2652  0D74  00B8               	movwf	??_sendByte+2
  2653  0D75  0838               	movf	??_sendByte+2,w
  2654  0D76  00BA               	movwf	sendByte@txByte
  2655  0D77                     l2850:	
  2656                           
  2657                           ;main.c: 415:     for (int i = 0; i < 5; i++)
  2658  0D77  01BB               	clrf	sendByte@i
  2659  0D78  01BC               	clrf	sendByte@i+1
  2660  0D79                     l2856:	
  2661                           
  2662                           ;main.c: 416:     {;main.c: 417:         UART_Write_Text(txByte++);
  2663  0D79  1283               	bcf	3,5	;RP0=0, select bank0
  2664  0D7A  1303               	bcf	3,6	;RP1=0, select bank0
  2665  0D7B  083A               	movf	sendByte@txByte,w
  2666  0D7C  120A  158A  2480  120A  158A  	fcall	_UART_Write_Text
  2667  0D81                     l2858:	
  2668  0D81  3001               	movlw	1
  2669  0D82  1283               	bcf	3,5	;RP0=0, select bank0
  2670  0D83  1303               	bcf	3,6	;RP1=0, select bank0
  2671  0D84  00B6               	movwf	??_sendByte
  2672  0D85  0836               	movf	??_sendByte,w
  2673  0D86  07BA               	addwf	sendByte@txByte,f
  2674  0D87                     l2860:	
  2675                           
  2676                           ;main.c: 418:     }
  2677  0D87  3001               	movlw	1
  2678  0D88  07BB               	addwf	sendByte@i,f
  2679  0D89  1803               	skipnc
  2680  0D8A  0ABC               	incf	sendByte@i+1,f
  2681  0D8B  3000               	movlw	0
  2682  0D8C  07BC               	addwf	sendByte@i+1,f
  2683  0D8D                     l2862:	
  2684  0D8D  083C               	movf	sendByte@i+1,w
  2685  0D8E  3A80               	xorlw	128
  2686  0D8F  00FF               	movwf	btemp+1
  2687  0D90  3080               	movlw	128
  2688  0D91  027F               	subwf	btemp+1,w
  2689  0D92  1D03               	skipz
  2690  0D93  2D96               	goto	u2945
  2691  0D94  3005               	movlw	5
  2692  0D95  023B               	subwf	sendByte@i,w
  2693  0D96                     u2945:	
  2694  0D96  1C03               	skipc
  2695  0D97  2D99               	goto	u2941
  2696  0D98  2D9A               	goto	u2940
  2697  0D99                     u2941:	
  2698  0D99  2D79               	goto	l2856
  2699  0D9A                     u2940:	
  2700  0D9A                     l296:	
  2701  0D9A  0008               	return
  2702  0D9B                     __end_of_sendByte:	
  2703                           
  2704                           	psect	text2
  2705  0C80                     __ptext2:	
  2706 ;; *************** function _UART_Write_Text *****************
  2707 ;; Defined at:
  2708 ;;		line 393 in file "main.c"
  2709 ;; Parameters:    Size  Location     Type
  2710 ;;  text            1    wreg     PTR unsigned char 
  2711 ;;		 -> BuildByte@txByte(5), 
  2712 ;; Auto vars:     Size  Location     Type
  2713 ;;  text            1    2[BANK0 ] PTR unsigned char 
  2714 ;;		 -> BuildByte@txByte(5), 
  2715 ;;  i               2    3[BANK0 ] int 
  2716 ;; Return value:  Size  Location     Type
  2717 ;;                  1    wreg      void 
  2718 ;; Registers used:
  2719 ;;		wreg, fsr0l, fsr0h, status,2, status,0, pclath, cstack
  2720 ;; Tracked objects:
  2721 ;;		On entry : 0/0
  2722 ;;		On exit  : 0/0
  2723 ;;		Unchanged: 0/0
  2724 ;; Data sizes:     COMMON   BANK0   BANK1   BANK3   BANK2
  2725 ;;      Params:         0       0       0       0       0
  2726 ;;      Locals:         0       3       0       0       0
  2727 ;;      Temps:          0       1       0       0       0
  2728 ;;      Totals:         0       4       0       0       0
  2729 ;;Total ram usage:        4 bytes
  2730 ;; Hardware stack levels used:    1
  2731 ;; Hardware stack levels required when called:    3
  2732 ;; This function calls:
  2733 ;;		_UART_TxChar
  2734 ;; This function is called by:
  2735 ;;		_sendByte
  2736 ;; This function uses a non-reentrant model
  2737 ;;
  2738                           
  2739                           
  2740                           ;psect for function _UART_Write_Text
  2741  0C80                     _UART_Write_Text:	
  2742                           
  2743                           ;incstack = 0
  2744                           ; Regs used in _UART_Write_Text: [wreg-fsr0h+status,2+status,0+pclath+cstack]
  2745                           ;UART_Write_Text@text stored from wreg
  2746  0C80  1283               	bcf	3,5	;RP0=0, select bank0
  2747  0C81  1303               	bcf	3,6	;RP1=0, select bank0
  2748  0C82  00A2               	movwf	UART_Write_Text@text
  2749  0C83                     l2620:	
  2750                           
  2751                           ;main.c: 393: void UART_Write_Text(char *text);main.c: 394: {;main.c: 395:     int i;;ma
      +                          in.c: 396:     for (i = 0; text[i] != '\0'; i++)
  2752  0C83  01A3               	clrf	UART_Write_Text@i
  2753  0C84  01A4               	clrf	UART_Write_Text@i+1
  2754  0C85  2C99               	goto	l2626
  2755  0C86                     l2622:	
  2756                           
  2757                           ;main.c: 397:     {;main.c: 398:         UART_TxChar(text[i]);
  2758  0C86  0823               	movf	UART_Write_Text@i,w
  2759  0C87  0722               	addwf	UART_Write_Text@text,w
  2760  0C88  00A1               	movwf	??_UART_Write_Text
  2761  0C89  0821               	movf	??_UART_Write_Text,w
  2762  0C8A  0084               	movwf	4
  2763  0C8B  0800               	movf	0,w
  2764  0C8C  120A  158A  2423  120A  158A  	fcall	_UART_TxChar
  2765  0C91                     l2624:	
  2766                           
  2767                           ;main.c: 399:     }
  2768  0C91  3001               	movlw	1
  2769  0C92  1283               	bcf	3,5	;RP0=0, select bank0
  2770  0C93  1303               	bcf	3,6	;RP1=0, select bank0
  2771  0C94  07A3               	addwf	UART_Write_Text@i,f
  2772  0C95  1803               	skipnc
  2773  0C96  0AA4               	incf	UART_Write_Text@i+1,f
  2774  0C97  3000               	movlw	0
  2775  0C98  07A4               	addwf	UART_Write_Text@i+1,f
  2776  0C99                     l2626:	
  2777  0C99  0823               	movf	UART_Write_Text@i,w
  2778  0C9A  0722               	addwf	UART_Write_Text@text,w
  2779  0C9B  00A1               	movwf	??_UART_Write_Text
  2780  0C9C  0821               	movf	??_UART_Write_Text,w
  2781  0C9D  0084               	movwf	4
  2782  0C9E  1383               	bcf	3,7	;select IRP bank0
  2783  0C9F  0800               	movf	0,w
  2784  0CA0  1D03               	btfss	3,2
  2785  0CA1  2CA3               	goto	u2561
  2786  0CA2  2CA4               	goto	u2560
  2787  0CA3                     u2561:	
  2788  0CA3  2C86               	goto	l2622
  2789  0CA4                     u2560:	
  2790  0CA4                     l285:	
  2791  0CA4  0008               	return
  2792  0CA5                     __end_of_UART_Write_Text:	
  2793                           
  2794                           	psect	text3
  2795  0C23                     __ptext3:	
  2796 ;; *************** function _UART_TxChar *****************
  2797 ;; Defined at:
  2798 ;;		line 385 in file "main.c"
  2799 ;; Parameters:    Size  Location     Type
  2800 ;;  ch              1    wreg     unsigned char 
  2801 ;; Auto vars:     Size  Location     Type
  2802 ;;  ch              1    0[BANK0 ] unsigned char 
  2803 ;; Return value:  Size  Location     Type
  2804 ;;                  1    wreg      void 
  2805 ;; Registers used:
  2806 ;;		wreg
  2807 ;; Tracked objects:
  2808 ;;		On entry : 0/0
  2809 ;;		On exit  : 0/0
  2810 ;;		Unchanged: 0/0
  2811 ;; Data sizes:     COMMON   BANK0   BANK1   BANK3   BANK2
  2812 ;;      Params:         0       0       0       0       0
  2813 ;;      Locals:         0       1       0       0       0
  2814 ;;      Temps:          0       0       0       0       0
  2815 ;;      Totals:         0       1       0       0       0
  2816 ;;Total ram usage:        1 bytes
  2817 ;; Hardware stack levels used:    1
  2818 ;; Hardware stack levels required when called:    2
  2819 ;; This function calls:
  2820 ;;		Nothing
  2821 ;; This function is called by:
  2822 ;;		_UART_Write_Text
  2823 ;; This function uses a non-reentrant model
  2824 ;;
  2825                           
  2826                           
  2827                           ;psect for function _UART_TxChar
  2828  0C23                     _UART_TxChar:	
  2829                           
  2830                           ;incstack = 0
  2831                           ; Regs used in _UART_TxChar: [wreg]
  2832                           ;UART_TxChar@ch stored from wreg
  2833  0C23  1283               	bcf	3,5	;RP0=0, select bank0
  2834  0C24  1303               	bcf	3,6	;RP1=0, select bank0
  2835  0C25  00A0               	movwf	UART_TxChar@ch
  2836  0C26                     l2548:	
  2837  0C26                     l276:	
  2838                           ;main.c: 388:         ;
  2839                           
  2840                           
  2841                           ;main.c: 387:     while (!TXIF)
  2842  0C26  1E0C               	btfss	12,4	;volatile
  2843  0C27  2C29               	goto	u2451
  2844  0C28  2C2A               	goto	u2450
  2845  0C29                     u2451:	
  2846  0C29  2C26               	goto	l276
  2847  0C2A                     u2450:	
  2848  0C2A                     l278:	
  2849                           
  2850                           ;main.c: 389:     TXIF = 0;
  2851  0C2A  120C               	bcf	12,4	;volatile
  2852  0C2B                     l2550:	
  2853                           
  2854                           ;main.c: 390:     TXREG = ch;
  2855  0C2B  0820               	movf	UART_TxChar@ch,w
  2856  0C2C  0099               	movwf	25	;volatile
  2857  0C2D                     l279:	
  2858  0C2D  0008               	return
  2859  0C2E                     __end_of_UART_TxChar:	
  2860                           
  2861                           	psect	text4
  2862  0674                     __ptext4:	
  2863 ;; *************** function _BuildByte *****************
  2864 ;; Defined at:
  2865 ;;		line 2 in file "./CustomLib/Serial.h"
  2866 ;; Parameters:    Size  Location     Type
  2867 ;;  byte0           1    wreg     unsigned char 
  2868 ;;  byte1           1    0[BANK0 ] unsigned char 
  2869 ;;  valore          1    1[BANK0 ] unsigned char 
  2870 ;; Auto vars:     Size  Location     Type
  2871 ;;  byte0           1    4[BANK0 ] unsigned char 
  2872 ;;  y               2   14[BANK0 ] int 
  2873 ;;  y               2   12[BANK0 ] int 
  2874 ;;  i               2   18[BANK0 ] int 
  2875 ;;  i               2   16[BANK0 ] int 
  2876 ;;  txByte          5    5[BANK0 ] unsigned char [5]
  2877 ;;  sommaColumn     1   11[BANK0 ] unsigned char 
  2878 ;;  sommaRow        1   10[BANK0 ] unsigned char 
  2879 ;; Return value:  Size  Location     Type
  2880 ;;                  1    wreg      PTR unsigned char 
  2881 ;; Registers used:
  2882 ;;		wreg, fsr0l, fsr0h, status,2, status,0, btemp+1
  2883 ;; Tracked objects:
  2884 ;;		On entry : 0/0
  2885 ;;		On exit  : 0/0
  2886 ;;		Unchanged: 0/0
  2887 ;; Data sizes:     COMMON   BANK0   BANK1   BANK3   BANK2
  2888 ;;      Params:         0       2       0       0       0
  2889 ;;      Locals:         0      16       0       0       0
  2890 ;;      Temps:          0       2       0       0       0
  2891 ;;      Totals:         0      20       0       0       0
  2892 ;;Total ram usage:       20 bytes
  2893 ;; Hardware stack levels used:    1
  2894 ;; Hardware stack levels required when called:    2
  2895 ;; This function calls:
  2896 ;;		Nothing
  2897 ;; This function is called by:
  2898 ;;		_sendByte
  2899 ;; This function uses a non-reentrant model
  2900 ;;
  2901                           
  2902                           
  2903                           ;psect for function _BuildByte
  2904  0674                     _BuildByte:	
  2905                           
  2906                           ;incstack = 0
  2907                           ; Regs used in _BuildByte: [wreg-fsr0h+status,2+status,0+btemp+1]
  2908                           ;BuildByte@byte0 stored from wreg
  2909  0674  1283               	bcf	3,5	;RP0=0, select bank0
  2910  0675  1303               	bcf	3,6	;RP1=0, select bank0
  2911  0676  00A4               	movwf	BuildByte@byte0
  2912  0677                     l2552:	
  2913                           
  2914                           ;./CustomLib/Serial.h: 2: char *BuildByte(char byte0, char byte1, char valore);./CustomL
      +                          ib/Serial.h: 3: {;./CustomLib/Serial.h: 4:     char txByte[5];;./CustomLib/Serial.h: 6: 
      +                              txByte[0] = byte0 & 0x7F;
  2915  0677  0824               	movf	BuildByte@byte0,w
  2916  0678  397F               	andlw	127
  2917  0679  00A2               	movwf	??_BuildByte
  2918  067A  0822               	movf	??_BuildByte,w
  2919  067B  00A5               	movwf	BuildByte@txByte
  2920                           
  2921                           ;./CustomLib/Serial.h: 7:     txByte[1] = byte1 & 0x7F;
  2922  067C  0820               	movf	BuildByte@byte1,w
  2923  067D  397F               	andlw	127
  2924  067E  00A2               	movwf	??_BuildByte
  2925  067F  0822               	movf	??_BuildByte,w
  2926  0680  00A6               	movwf	BuildByte@txByte+1
  2927                           
  2928                           ;./CustomLib/Serial.h: 8:     txByte[2] = valore & 0x7F;
  2929  0681  0821               	movf	BuildByte@valore,w
  2930  0682  397F               	andlw	127
  2931  0683  00A2               	movwf	??_BuildByte
  2932  0684  0822               	movf	??_BuildByte,w
  2933  0685  00A7               	movwf	BuildByte@txByte+2
  2934  0686                     l2554:	
  2935                           
  2936                           ;./CustomLib/Serial.h: 9:     txByte[3] = (valore >> 7) & 0x7F;
  2937  0686  0821               	movf	BuildByte@valore,w
  2938  0687  00A2               	movwf	??_BuildByte
  2939  0688  3007               	movlw	7
  2940  0689                     u2465:	
  2941  0689  1003               	clrc
  2942  068A  0CA2               	rrf	??_BuildByte,f
  2943  068B  3EFF               	addlw	-1
  2944  068C  1D03               	skipz
  2945  068D  2E89               	goto	u2465
  2946  068E  0822               	movf	??_BuildByte,w
  2947  068F  397F               	andlw	127
  2948  0690  00A3               	movwf	??_BuildByte+1
  2949  0691  0823               	movf	??_BuildByte+1,w
  2950  0692  00A8               	movwf	BuildByte@txByte+3
  2951  0693                     l2556:	
  2952                           
  2953                           ;./CustomLib/Serial.h: 10:     char sommaRow = 0;
  2954  0693  01AA               	clrf	BuildByte@sommaRow
  2955  0694                     l2558:	
  2956                           
  2957                           ;./CustomLib/Serial.h: 11:     char sommaColumn = 0;
  2958  0694  01AB               	clrf	BuildByte@sommaColumn
  2959  0695                     l2560:	
  2960                           
  2961                           ;./CustomLib/Serial.h: 13:     for (int i = 0; i < 4; i++)
  2962  0695  01B0               	clrf	BuildByte@i
  2963  0696  01B1               	clrf	BuildByte@i+1
  2964  0697                     l2566:	
  2965                           
  2966                           ;./CustomLib/Serial.h: 14:     {;./CustomLib/Serial.h: 15:         for (int y = 0; y < 8
      +                          ; y++)
  2967  0697  1283               	bcf	3,5	;RP0=0, select bank0
  2968  0698  1303               	bcf	3,6	;RP1=0, select bank0
  2969  0699  01AC               	clrf	BuildByte@y
  2970  069A  01AD               	clrf	BuildByte@y+1
  2971  069B                     l2572:	
  2972                           
  2973                           ;./CustomLib/Serial.h: 16:         {;./CustomLib/Serial.h: 17:             sommaRow += (
      +                          txByte[i] >> y) & 1;
  2974  069B  1283               	bcf	3,5	;RP0=0, select bank0
  2975  069C  1303               	bcf	3,6	;RP1=0, select bank0
  2976  069D  0830               	movf	BuildByte@i,w
  2977  069E  3E25               	addlw	(low (BuildByte@txByte| 0))& (0+255)
  2978  069F  0084               	movwf	4
  2979  06A0  1383               	bcf	3,7	;select IRP bank0
  2980  06A1  0800               	movf	0,w
  2981  06A2  00A2               	movwf	??_BuildByte
  2982  06A3  0A2C               	incf	BuildByte@y,w
  2983  06A4  2EA7               	goto	u2474
  2984  06A5                     u2475:	
  2985  06A5  1003               	clrc
  2986  06A6  0CA2               	rrf	??_BuildByte,f
  2987  06A7                     u2474:	
  2988  06A7  3EFF               	addlw	-1
  2989  06A8  1D03               	skipz
  2990  06A9  2EA5               	goto	u2475
  2991  06AA  0822               	movf	??_BuildByte,w
  2992  06AB  3901               	andlw	1
  2993  06AC  00A3               	movwf	??_BuildByte+1
  2994  06AD  0823               	movf	??_BuildByte+1,w
  2995  06AE  07AA               	addwf	BuildByte@sommaRow,f
  2996  06AF                     l2574:	
  2997                           
  2998                           ;./CustomLib/Serial.h: 18:         }
  2999  06AF  3001               	movlw	1
  3000  06B0  07AC               	addwf	BuildByte@y,f
  3001  06B1  1803               	skipnc
  3002  06B2  0AAD               	incf	BuildByte@y+1,f
  3003  06B3  3000               	movlw	0
  3004  06B4  07AD               	addwf	BuildByte@y+1,f
  3005  06B5                     l2576:	
  3006  06B5  082D               	movf	BuildByte@y+1,w
  3007  06B6  3A80               	xorlw	128
  3008  06B7  00FF               	movwf	btemp+1
  3009  06B8  3080               	movlw	128
  3010  06B9  027F               	subwf	btemp+1,w
  3011  06BA  1D03               	skipz
  3012  06BB  2EBE               	goto	u2485
  3013  06BC  3008               	movlw	8
  3014  06BD  022C               	subwf	BuildByte@y,w
  3015  06BE                     u2485:	
  3016  06BE  1C03               	skipc
  3017  06BF  2EC1               	goto	u2481
  3018  06C0  2EC2               	goto	u2480
  3019  06C1                     u2481:	
  3020  06C1  2E9B               	goto	l2572
  3021  06C2                     u2480:	
  3022  06C2                     l119:	
  3023                           
  3024                           ;./CustomLib/Serial.h: 19:         if (sommaRow % 2 == 1)
  3025  06C2  1283               	bcf	3,5	;RP0=0, select bank0
  3026  06C3  1303               	bcf	3,6	;RP1=0, select bank0
  3027  06C4  1C2A               	btfss	BuildByte@sommaRow,0
  3028  06C5  2EC7               	goto	u2491
  3029  06C6  2EC8               	goto	u2490
  3030  06C7                     u2491:	
  3031  06C7  2ED0               	goto	l2580
  3032  06C8                     u2490:	
  3033  06C8                     l2578:	
  3034                           
  3035                           ;./CustomLib/Serial.h: 20:         {;./CustomLib/Serial.h: 21:             txByte[i] += 
      +                          0x01 << 7;
  3036  06C8  3080               	movlw	128
  3037  06C9  00A2               	movwf	??_BuildByte
  3038  06CA  0830               	movf	BuildByte@i,w
  3039  06CB  3E25               	addlw	(low (BuildByte@txByte| 0))& (0+255)
  3040  06CC  0084               	movwf	4
  3041  06CD  0822               	movf	??_BuildByte,w
  3042  06CE  1383               	bcf	3,7	;select IRP bank0
  3043  06CF  0780               	addwf	0,f
  3044  06D0                     l2580:	
  3045                           
  3046                           ;./CustomLib/Serial.h: 22:             sommaRow = 0;
  3047  06D0  01AA               	clrf	BuildByte@sommaRow
  3048  06D1                     l2584:	
  3049                           ;./CustomLib/Serial.h: 23:         }
  3050                           
  3051                           
  3052                           ;./CustomLib/Serial.h: 28:     }
  3053  06D1  3001               	movlw	1
  3054  06D2  07B0               	addwf	BuildByte@i,f
  3055  06D3  1803               	skipnc
  3056  06D4  0AB1               	incf	BuildByte@i+1,f
  3057  06D5  3000               	movlw	0
  3058  06D6  07B1               	addwf	BuildByte@i+1,f
  3059  06D7                     l2586:	
  3060  06D7  0831               	movf	BuildByte@i+1,w
  3061  06D8  3A80               	xorlw	128
  3062  06D9  00FF               	movwf	btemp+1
  3063  06DA  3080               	movlw	128
  3064  06DB  027F               	subwf	btemp+1,w
  3065  06DC  1D03               	skipz
  3066  06DD  2EE0               	goto	u2505
  3067  06DE  3004               	movlw	4
  3068  06DF  0230               	subwf	BuildByte@i,w
  3069  06E0                     u2505:	
  3070  06E0  1C03               	skipc
  3071  06E1  2EE3               	goto	u2501
  3072  06E2  2EE4               	goto	u2500
  3073  06E3                     u2501:	
  3074  06E3  2E97               	goto	l2566
  3075  06E4                     u2500:	
  3076  06E4                     l2588:	
  3077                           
  3078                           ;./CustomLib/Serial.h: 30:     for (int i = 0; i < 8; i++)
  3079  06E4  1283               	bcf	3,5	;RP0=0, select bank0
  3080  06E5  1303               	bcf	3,6	;RP1=0, select bank0
  3081  06E6  01B2               	clrf	BuildByte@i_342
  3082  06E7  01B3               	clrf	BuildByte@i_342+1
  3083  06E8                     l2594:	
  3084                           
  3085                           ;./CustomLib/Serial.h: 31:     {;./CustomLib/Serial.h: 32:         for (int y = 0; y < 4
      +                          ; y++)
  3086  06E8  1283               	bcf	3,5	;RP0=0, select bank0
  3087  06E9  1303               	bcf	3,6	;RP1=0, select bank0
  3088  06EA  01AE               	clrf	BuildByte@y_343
  3089  06EB  01AF               	clrf	BuildByte@y_343+1
  3090  06EC                     l2600:	
  3091                           
  3092                           ;./CustomLib/Serial.h: 34:         {;./CustomLib/Serial.h: 35:             sommaColumn +
      +                          = (txByte[y] >> i) & 1;
  3093  06EC  1283               	bcf	3,5	;RP0=0, select bank0
  3094  06ED  1303               	bcf	3,6	;RP1=0, select bank0
  3095  06EE  082E               	movf	BuildByte@y_343,w
  3096  06EF  3E25               	addlw	(low (BuildByte@txByte| 0))& (0+255)
  3097  06F0  0084               	movwf	4
  3098  06F1  1383               	bcf	3,7	;select IRP bank0
  3099  06F2  0800               	movf	0,w
  3100  06F3  00A2               	movwf	??_BuildByte
  3101  06F4  0A32               	incf	BuildByte@i_342,w
  3102  06F5  2EF8               	goto	u2514
  3103  06F6                     u2515:	
  3104  06F6  1003               	clrc
  3105  06F7  0CA2               	rrf	??_BuildByte,f
  3106  06F8                     u2514:	
  3107  06F8  3EFF               	addlw	-1
  3108  06F9  1D03               	skipz
  3109  06FA  2EF6               	goto	u2515
  3110  06FB  0822               	movf	??_BuildByte,w
  3111  06FC  3901               	andlw	1
  3112  06FD  00A3               	movwf	??_BuildByte+1
  3113  06FE  0823               	movf	??_BuildByte+1,w
  3114  06FF  07AB               	addwf	BuildByte@sommaColumn,f
  3115  0700                     l2602:	
  3116                           
  3117                           ;./CustomLib/Serial.h: 36:         }
  3118  0700  3001               	movlw	1
  3119  0701  07AE               	addwf	BuildByte@y_343,f
  3120  0702  1803               	skipnc
  3121  0703  0AAF               	incf	BuildByte@y_343+1,f
  3122  0704  3000               	movlw	0
  3123  0705  07AF               	addwf	BuildByte@y_343+1,f
  3124  0706                     l2604:	
  3125  0706  082F               	movf	BuildByte@y_343+1,w
  3126  0707  3A80               	xorlw	128
  3127  0708  00FF               	movwf	btemp+1
  3128  0709  3080               	movlw	128
  3129  070A  027F               	subwf	btemp+1,w
  3130  070B  1D03               	skipz
  3131  070C  2F0F               	goto	u2525
  3132  070D  3004               	movlw	4
  3133  070E  022E               	subwf	BuildByte@y_343,w
  3134  070F                     u2525:	
  3135  070F  1C03               	skipc
  3136  0710  2F12               	goto	u2521
  3137  0711  2F13               	goto	u2520
  3138  0712                     u2521:	
  3139  0712  2EEC               	goto	l2600
  3140  0713                     u2520:	
  3141  0713                     l125:	
  3142                           
  3143                           ;./CustomLib/Serial.h: 37:         if (sommaColumn % 2 == 1)
  3144  0713  1283               	bcf	3,5	;RP0=0, select bank0
  3145  0714  1303               	bcf	3,6	;RP1=0, select bank0
  3146  0715  1C2B               	btfss	BuildByte@sommaColumn,0
  3147  0716  2F18               	goto	u2531
  3148  0717  2F19               	goto	u2530
  3149  0718                     u2531:	
  3150  0718  2F26               	goto	l2608
  3151  0719                     u2530:	
  3152  0719                     l2606:	
  3153                           
  3154                           ;./CustomLib/Serial.h: 38:         {;./CustomLib/Serial.h: 39:             txByte[4] += 
      +                          0x01 << i;
  3155  0719  3001               	movlw	1
  3156  071A  00A2               	movwf	??_BuildByte
  3157  071B  0A32               	incf	BuildByte@i_342,w
  3158  071C  2F1F               	goto	u2544
  3159  071D                     u2545:	
  3160  071D  1003               	clrc
  3161  071E  0DA2               	rlf	??_BuildByte,f
  3162  071F                     u2544:	
  3163  071F  3EFF               	addlw	-1
  3164  0720  1D03               	skipz
  3165  0721  2F1D               	goto	u2545
  3166  0722  0822               	movf	??_BuildByte,w
  3167  0723  00A3               	movwf	??_BuildByte+1
  3168  0724  0823               	movf	??_BuildByte+1,w
  3169  0725  07A9               	addwf	BuildByte@txByte+4,f
  3170  0726                     l2608:	
  3171                           
  3172                           ;./CustomLib/Serial.h: 40:             sommaColumn = 0;
  3173  0726  01AB               	clrf	BuildByte@sommaColumn
  3174  0727                     l2612:	
  3175                           ;./CustomLib/Serial.h: 41:         }
  3176                           
  3177                           
  3178                           ;./CustomLib/Serial.h: 46:     }
  3179  0727  3001               	movlw	1
  3180  0728  07B2               	addwf	BuildByte@i_342,f
  3181  0729  1803               	skipnc
  3182  072A  0AB3               	incf	BuildByte@i_342+1,f
  3183  072B  3000               	movlw	0
  3184  072C  07B3               	addwf	BuildByte@i_342+1,f
  3185  072D                     l2614:	
  3186  072D  0833               	movf	BuildByte@i_342+1,w
  3187  072E  3A80               	xorlw	128
  3188  072F  00FF               	movwf	btemp+1
  3189  0730  3080               	movlw	128
  3190  0731  027F               	subwf	btemp+1,w
  3191  0732  1D03               	skipz
  3192  0733  2F36               	goto	u2555
  3193  0734  3008               	movlw	8
  3194  0735  0232               	subwf	BuildByte@i_342,w
  3195  0736                     u2555:	
  3196  0736  1C03               	skipc
  3197  0737  2F39               	goto	u2551
  3198  0738  2F3A               	goto	u2550
  3199  0739                     u2551:	
  3200  0739  2EE8               	goto	l2594
  3201  073A                     u2550:	
  3202  073A                     l2616:	
  3203                           
  3204                           ;./CustomLib/Serial.h: 48:     return txByte;
  3205  073A  3025               	movlw	(low (BuildByte@txByte| 0))& (0+255)
  3206  073B                     l128:	
  3207  073B  0008               	return
  3208  073C                     __end_of_BuildByte:	
  3209                           
  3210                           	psect	text5
  3211  0CF2                     __ptext5:	
  3212 ;; *************** function _map *****************
  3213 ;; Defined at:
  3214 ;;		line 1 in file "./CustomLib/Conversions.h"
  3215 ;; Parameters:    Size  Location     Type
  3216 ;;  x               2   16[BANK0 ] int 
  3217 ;;  in_min          2   18[BANK0 ] int 
  3218 ;;  in_max          2   20[BANK0 ] int 
  3219 ;;  out_min         2   22[BANK0 ] int 
  3220 ;;  out_max         2   24[BANK0 ] int 
  3221 ;; Auto vars:     Size  Location     Type
  3222 ;;		None
  3223 ;; Return value:  Size  Location     Type
  3224 ;;                  2   16[BANK0 ] int 
  3225 ;; Registers used:
  3226 ;;		wreg, status,2, status,0, pclath, cstack
  3227 ;; Tracked objects:
  3228 ;;		On entry : 0/0
  3229 ;;		On exit  : 0/0
  3230 ;;		Unchanged: 0/0
  3231 ;; Data sizes:     COMMON   BANK0   BANK1   BANK3   BANK2
  3232 ;;      Params:         0      10       0       0       0
  3233 ;;      Locals:         0       0       0       0       0
  3234 ;;      Temps:          0       0       0       0       0
  3235 ;;      Totals:         0      10       0       0       0
  3236 ;;Total ram usage:       10 bytes
  3237 ;; Hardware stack levels used:    1
  3238 ;; Hardware stack levels required when called:    3
  3239 ;; This function calls:
  3240 ;;		___awdiv
  3241 ;;		___wmul
  3242 ;; This function is called by:
  3243 ;;		_main
  3244 ;; This function uses a non-reentrant model
  3245 ;;
  3246                           
  3247                           
  3248                           ;psect for function _map
  3249  0CF2                     _map:	
  3250  0CF2                     l2764:	
  3251                           ;incstack = 0
  3252                           ; Regs used in _map: [wreg+status,2+status,0+pclath+cstack]
  3253                           
  3254                           
  3255                           ;./CustomLib/Conversions.h: 1: int map(int x, int in_min, int in_max, int out_min, int o
      +                          ut_max);./CustomLib/Conversions.h: 2: {;./CustomLib/Conversions.h: 3:     return (x - in
      +                          _min) * (out_max - out_min) / (in_max - in_min) + out_min;
  3256  0CF2  1283               	bcf	3,5	;RP0=0, select bank0
  3257  0CF3  1303               	bcf	3,6	;RP1=0, select bank0
  3258  0CF4  0832               	movf	map@in_min,w
  3259  0CF5  0234               	subwf	map@in_max,w
  3260  0CF6  00A7               	movwf	___awdiv@divisor
  3261  0CF7  0833               	movf	map@in_min+1,w
  3262  0CF8  1C03               	skipc
  3263  0CF9  0A33               	incf	map@in_min+1,w
  3264  0CFA  0235               	subwf	map@in_max+1,w
  3265  0CFB  00A8               	movwf	___awdiv@divisor+1
  3266  0CFC  0832               	movf	map@in_min,w
  3267  0CFD  0230               	subwf	map@x,w
  3268  0CFE  00A0               	movwf	___wmul@multiplier
  3269  0CFF  0833               	movf	map@in_min+1,w
  3270  0D00  1C03               	skipc
  3271  0D01  0A33               	incf	map@in_min+1,w
  3272  0D02  0231               	subwf	map@x+1,w
  3273  0D03  00A1               	movwf	___wmul@multiplier+1
  3274  0D04  0836               	movf	map@out_min,w
  3275  0D05  0238               	subwf	map@out_max,w
  3276  0D06  00A2               	movwf	___wmul@multiplicand
  3277  0D07  0837               	movf	map@out_min+1,w
  3278  0D08  1C03               	skipc
  3279  0D09  0A37               	incf	map@out_min+1,w
  3280  0D0A  0239               	subwf	map@out_max+1,w
  3281  0D0B  00A3               	movwf	___wmul@multiplicand+1
  3282  0D0C  120A  158A  24CB  120A  158A  	fcall	___wmul
  3283  0D11  1283               	bcf	3,5	;RP0=0, select bank0
  3284  0D12  1303               	bcf	3,6	;RP1=0, select bank0
  3285  0D13  0821               	movf	?___wmul+1,w
  3286  0D14  00AA               	movwf	___awdiv@dividend+1
  3287  0D15  0820               	movf	?___wmul,w
  3288  0D16  00A9               	movwf	___awdiv@dividend
  3289  0D17  120A  158A  268F  120A  158A  	fcall	___awdiv
  3290  0D1C  1283               	bcf	3,5	;RP0=0, select bank0
  3291  0D1D  1303               	bcf	3,6	;RP1=0, select bank0
  3292  0D1E  0836               	movf	map@out_min,w
  3293  0D1F  0727               	addwf	?___awdiv,w
  3294  0D20  00B0               	movwf	?_map
  3295  0D21  0837               	movf	map@out_min+1,w
  3296  0D22  1803               	skipnc
  3297  0D23  0A37               	incf	map@out_min+1,w
  3298  0D24  0728               	addwf	?___awdiv+1,w
  3299  0D25  00B1               	movwf	?_map+1
  3300  0D26                     l83:	
  3301  0D26  0008               	return
  3302  0D27                     __end_of_map:	
  3303                           
  3304                           	psect	text6
  3305  0CCB                     __ptext6:	
  3306 ;; *************** function ___wmul *****************
  3307 ;; Defined at:
  3308 ;;		line 15 in file "C:\Program Files (x86)\Microchip\xc8\v2.10\pic\sources\c90\common\Umul16.c"
  3309 ;; Parameters:    Size  Location     Type
  3310 ;;  multiplier      2    0[BANK0 ] unsigned int 
  3311 ;;  multiplicand    2    2[BANK0 ] unsigned int 
  3312 ;; Auto vars:     Size  Location     Type
  3313 ;;  product         2    4[BANK0 ] unsigned int 
  3314 ;; Return value:  Size  Location     Type
  3315 ;;                  2    0[BANK0 ] unsigned int 
  3316 ;; Registers used:
  3317 ;;		wreg, status,2, status,0
  3318 ;; Tracked objects:
  3319 ;;		On entry : 0/0
  3320 ;;		On exit  : 0/0
  3321 ;;		Unchanged: 0/0
  3322 ;; Data sizes:     COMMON   BANK0   BANK1   BANK3   BANK2
  3323 ;;      Params:         0       4       0       0       0
  3324 ;;      Locals:         0       2       0       0       0
  3325 ;;      Temps:          0       0       0       0       0
  3326 ;;      Totals:         0       6       0       0       0
  3327 ;;Total ram usage:        6 bytes
  3328 ;; Hardware stack levels used:    1
  3329 ;; Hardware stack levels required when called:    2
  3330 ;; This function calls:
  3331 ;;		Nothing
  3332 ;; This function is called by:
  3333 ;;		_map
  3334 ;;		_main
  3335 ;; This function uses a non-reentrant model
  3336 ;;
  3337                           
  3338                           
  3339                           ;psect for function ___wmul
  3340  0CCB                     ___wmul:	
  3341  0CCB                     l2628:	
  3342                           ;incstack = 0
  3343                           ; Regs used in ___wmul: [wreg+status,2+status,0]
  3344                           
  3345  0CCB  1283               	bcf	3,5	;RP0=0, select bank0
  3346  0CCC  1303               	bcf	3,6	;RP1=0, select bank0
  3347  0CCD  01A4               	clrf	___wmul@product
  3348  0CCE  01A5               	clrf	___wmul@product+1
  3349  0CCF                     l2630:	
  3350  0CCF  1C20               	btfss	___wmul@multiplier,0
  3351  0CD0  2CD2               	goto	u2571
  3352  0CD1  2CD3               	goto	u2570
  3353  0CD2                     u2571:	
  3354  0CD2  2CD9               	goto	l440
  3355  0CD3                     u2570:	
  3356  0CD3                     l2632:	
  3357  0CD3  0822               	movf	___wmul@multiplicand,w
  3358  0CD4  07A4               	addwf	___wmul@product,f
  3359  0CD5  1803               	skipnc
  3360  0CD6  0AA5               	incf	___wmul@product+1,f
  3361  0CD7  0823               	movf	___wmul@multiplicand+1,w
  3362  0CD8  07A5               	addwf	___wmul@product+1,f
  3363  0CD9                     l440:	
  3364  0CD9  3001               	movlw	1
  3365  0CDA                     u2585:	
  3366  0CDA  1003               	clrc
  3367  0CDB  0DA2               	rlf	___wmul@multiplicand,f
  3368  0CDC  0DA3               	rlf	___wmul@multiplicand+1,f
  3369  0CDD  3EFF               	addlw	-1
  3370  0CDE  1D03               	skipz
  3371  0CDF  2CDA               	goto	u2585
  3372  0CE0                     l2634:	
  3373  0CE0  3001               	movlw	1
  3374  0CE1                     u2595:	
  3375  0CE1  1003               	clrc
  3376  0CE2  0CA1               	rrf	___wmul@multiplier+1,f
  3377  0CE3  0CA0               	rrf	___wmul@multiplier,f
  3378  0CE4  3EFF               	addlw	-1
  3379  0CE5  1D03               	skipz
  3380  0CE6  2CE1               	goto	u2595
  3381  0CE7                     l2636:	
  3382  0CE7  0820               	movf	___wmul@multiplier,w
  3383  0CE8  0421               	iorwf	___wmul@multiplier+1,w
  3384  0CE9  1D03               	btfss	3,2
  3385  0CEA  2CEC               	goto	u2601
  3386  0CEB  2CED               	goto	u2600
  3387  0CEC                     u2601:	
  3388  0CEC  2CCF               	goto	l2630
  3389  0CED                     u2600:	
  3390  0CED                     l2638:	
  3391  0CED  0825               	movf	___wmul@product+1,w
  3392  0CEE  00A1               	movwf	?___wmul+1
  3393  0CEF  0824               	movf	___wmul@product,w
  3394  0CF0  00A0               	movwf	?___wmul
  3395  0CF1                     l442:	
  3396  0CF1  0008               	return
  3397  0CF2                     __end_of___wmul:	
  3398                           
  3399                           	psect	text7
  3400  0C2E                     __ptext7:	
  3401 ;; *************** function _init_ADC *****************
  3402 ;; Defined at:
  3403 ;;		line 354 in file "main.c"
  3404 ;; Parameters:    Size  Location     Type
  3405 ;;		None
  3406 ;; Auto vars:     Size  Location     Type
  3407 ;;		None
  3408 ;; Return value:  Size  Location     Type
  3409 ;;                  1    wreg      void 
  3410 ;; Registers used:
  3411 ;;		wreg, status,2
  3412 ;; Tracked objects:
  3413 ;;		On entry : 0/0
  3414 ;;		On exit  : 0/0
  3415 ;;		Unchanged: 0/0
  3416 ;; Data sizes:     COMMON   BANK0   BANK1   BANK3   BANK2
  3417 ;;      Params:         0       0       0       0       0
  3418 ;;      Locals:         0       0       0       0       0
  3419 ;;      Temps:          0       1       0       0       0
  3420 ;;      Totals:         0       1       0       0       0
  3421 ;;Total ram usage:        1 bytes
  3422 ;; Hardware stack levels used:    1
  3423 ;; Hardware stack levels required when called:    2
  3424 ;; This function calls:
  3425 ;;		Nothing
  3426 ;; This function is called by:
  3427 ;;		_main
  3428 ;; This function uses a non-reentrant model
  3429 ;;
  3430                           
  3431                           
  3432                           ;psect for function _init_ADC
  3433  0C2E                     _init_ADC:	
  3434  0C2E                     l2768:	
  3435                           ;incstack = 0
  3436                           ; Regs used in _init_ADC: [wreg+status,2]
  3437                           
  3438                           
  3439                           ;main.c: 356:     TRISA = 0xE3;
  3440  0C2E  30E3               	movlw	227
  3441  0C2F  1683               	bsf	3,5	;RP0=1, select bank1
  3442  0C30  1303               	bcf	3,6	;RP1=0, select bank1
  3443  0C31  0085               	movwf	5	;volatile
  3444  0C32                     l2770:	
  3445                           
  3446                           ;main.c: 357:     ADCON0 = 0x00;
  3447  0C32  1283               	bcf	3,5	;RP0=0, select bank0
  3448  0C33  1303               	bcf	3,6	;RP1=0, select bank0
  3449  0C34  019F               	clrf	31	;volatile
  3450  0C35                     l2772:	
  3451                           
  3452                           ;main.c: 358:     ADCON1 = 0x80;
  3453  0C35  3080               	movlw	128
  3454  0C36  1683               	bsf	3,5	;RP0=1, select bank1
  3455  0C37  1303               	bcf	3,6	;RP1=0, select bank1
  3456  0C38  009F               	movwf	31	;volatile
  3457  0C39                     l2774:	
  3458                           
  3459                           ;main.c: 359:     _delay((unsigned long)((10)*(32000000/4000000.0)));
  3460  0C39  3019               	movlw	25
  3461  0C3A  1283               	bcf	3,5	;RP0=0, select bank0
  3462  0C3B  1303               	bcf	3,6	;RP1=0, select bank0
  3463  0C3C  00A0               	movwf	??_init_ADC
  3464  0C3D                     u3327:	
  3465  0C3D  0BA0               	decfsz	??_init_ADC,f
  3466  0C3E  2C3D               	goto	u3327
  3467  0C3F  2C40               	nop2
  3468  0C40                     l264:	
  3469  0C40  0008               	return
  3470  0C41                     __end_of_init_ADC:	
  3471                           
  3472                           	psect	text8
  3473  0C69                     __ptext8:	
  3474 ;; *************** function ___bmul *****************
  3475 ;; Defined at:
  3476 ;;		line 4 in file "C:\Program Files (x86)\Microchip\xc8\v2.10\pic\sources\c90\common\Umul8.c"
  3477 ;; Parameters:    Size  Location     Type
  3478 ;;  multiplier      1    wreg     unsigned char 
  3479 ;;  multiplicand    1    0[BANK0 ] unsigned char 
  3480 ;; Auto vars:     Size  Location     Type
  3481 ;;  multiplier      1    3[BANK0 ] unsigned char 
  3482 ;;  product         1    2[BANK0 ] unsigned char 
  3483 ;; Return value:  Size  Location     Type
  3484 ;;                  1    wreg      unsigned char 
  3485 ;; Registers used:
  3486 ;;		wreg, status,2, status,0
  3487 ;; Tracked objects:
  3488 ;;		On entry : 0/0
  3489 ;;		On exit  : 0/0
  3490 ;;		Unchanged: 0/0
  3491 ;; Data sizes:     COMMON   BANK0   BANK1   BANK3   BANK2
  3492 ;;      Params:         0       1       0       0       0
  3493 ;;      Locals:         0       2       0       0       0
  3494 ;;      Temps:          0       1       0       0       0
  3495 ;;      Totals:         0       4       0       0       0
  3496 ;;Total ram usage:        4 bytes
  3497 ;; Hardware stack levels used:    1
  3498 ;; Hardware stack levels required when called:    2
  3499 ;; This function calls:
  3500 ;;		Nothing
  3501 ;; This function is called by:
  3502 ;;		_main
  3503 ;; This function uses a non-reentrant model
  3504 ;;
  3505                           
  3506                           
  3507                           ;psect for function ___bmul
  3508  0C69                     ___bmul:	
  3509                           
  3510                           ;incstack = 0
  3511                           ; Regs used in ___bmul: [wreg+status,2+status,0]
  3512                           ;___bmul@multiplier stored from wreg
  3513  0C69  1283               	bcf	3,5	;RP0=0, select bank0
  3514  0C6A  1303               	bcf	3,6	;RP1=0, select bank0
  3515  0C6B  00A3               	movwf	___bmul@multiplier
  3516  0C6C                     l2874:	
  3517  0C6C  01A2               	clrf	___bmul@product
  3518  0C6D                     l2876:	
  3519  0C6D  1C23               	btfss	___bmul@multiplier,0
  3520  0C6E  2C70               	goto	u2971
  3521  0C6F  2C71               	goto	u2970
  3522  0C70                     u2971:	
  3523  0C70  2C75               	goto	l2880
  3524  0C71                     u2970:	
  3525  0C71                     l2878:	
  3526  0C71  0820               	movf	___bmul@multiplicand,w
  3527  0C72  00A1               	movwf	??___bmul
  3528  0C73  0821               	movf	??___bmul,w
  3529  0C74  07A2               	addwf	___bmul@product,f
  3530  0C75                     l2880:	
  3531  0C75  1003               	clrc
  3532  0C76  0DA0               	rlf	___bmul@multiplicand,f
  3533  0C77                     l2882:	
  3534  0C77  1003               	clrc
  3535  0C78  0CA3               	rrf	___bmul@multiplier,f
  3536  0C79  0823               	movf	___bmul@multiplier,w
  3537  0C7A  1D03               	btfss	3,2
  3538  0C7B  2C7D               	goto	u2981
  3539  0C7C  2C7E               	goto	u2980
  3540  0C7D                     u2981:	
  3541  0C7D  2C6D               	goto	l2876
  3542  0C7E                     u2980:	
  3543  0C7E                     l2884:	
  3544  0C7E  0822               	movf	___bmul@product,w
  3545  0C7F                     l466:	
  3546  0C7F  0008               	return
  3547  0C80                     __end_of___bmul:	
  3548                           
  3549                           	psect	text9
  3550  0D27                     __ptext9:	
  3551 ;; *************** function _UART_Init *****************
  3552 ;; Defined at:
  3553 ;;		line 373 in file "main.c"
  3554 ;; Parameters:    Size  Location     Type
  3555 ;;  baudrate        2   15[BANK0 ] int 
  3556 ;; Auto vars:     Size  Location     Type
  3557 ;;		None
  3558 ;; Return value:  Size  Location     Type
  3559 ;;                  1    wreg      void 
  3560 ;; Registers used:
  3561 ;;		wreg, status,2, status,0, pclath, cstack
  3562 ;; Tracked objects:
  3563 ;;		On entry : 0/0
  3564 ;;		On exit  : 0/0
  3565 ;;		Unchanged: 0/0
  3566 ;; Data sizes:     COMMON   BANK0   BANK1   BANK3   BANK2
  3567 ;;      Params:         0       2       0       0       0
  3568 ;;      Locals:         0       0       0       0       0
  3569 ;;      Temps:          0       4       0       0       0
  3570 ;;      Totals:         0       6       0       0       0
  3571 ;;Total ram usage:        6 bytes
  3572 ;; Hardware stack levels used:    1
  3573 ;; Hardware stack levels required when called:    3
  3574 ;; This function calls:
  3575 ;;		___aldiv
  3576 ;; This function is called by:
  3577 ;;		_main
  3578 ;; This function uses a non-reentrant model
  3579 ;;
  3580                           
  3581                           
  3582                           ;psect for function _UART_Init
  3583  0D27                     _UART_Init:	
  3584  0D27                     l2776:	
  3585                           ;incstack = 0
  3586                           ; Regs used in _UART_Init: [wreg+status,2+status,0+pclath+cstack]
  3587                           
  3588                           
  3589                           ;main.c: 373: void UART_Init(int baudrate);main.c: 374: {;main.c: 375:     TRISCbits.TRI
      +                          SC6 = 0;
  3590  0D27  1683               	bsf	3,5	;RP0=1, select bank1
  3591  0D28  1303               	bcf	3,6	;RP1=0, select bank1
  3592  0D29  1307               	bcf	7,6	;volatile
  3593                           
  3594                           ;main.c: 376:     TXSTAbits.TXEN = 1;
  3595  0D2A  1698               	bsf	24,5	;volatile
  3596                           
  3597                           ;main.c: 377:     RCSTAbits.SPEN = 1;
  3598  0D2B  1283               	bcf	3,5	;RP0=0, select bank0
  3599  0D2C  1303               	bcf	3,6	;RP1=0, select bank0
  3600  0D2D  1798               	bsf	24,7	;volatile
  3601                           
  3602                           ;main.c: 378:     RCSTAbits.CREN = 1;
  3603  0D2E  1618               	bsf	24,4	;volatile
  3604  0D2F                     l2778:	
  3605                           
  3606                           ;main.c: 379:     SPBRG = (32000000 / (long)(64UL * baudrate)) - 1;
  3607  0D2F  082F               	movf	UART_Init@baudrate,w
  3608  0D30  00B1               	movwf	??_UART_Init
  3609  0D31  0830               	movf	UART_Init@baudrate+1,w
  3610  0D32  00B2               	movwf	??_UART_Init+1
  3611  0D33  3000               	movlw	0
  3612  0D34  1BB2               	btfsc	??_UART_Init+1,7
  3613  0D35  30FF               	movlw	255
  3614  0D36  00B3               	movwf	??_UART_Init+2
  3615  0D37  00B4               	movwf	??_UART_Init+3
  3616  0D38  3006               	movlw	6
  3617  0D39                     u2905:	
  3618  0D39  1003               	clrc
  3619  0D3A  0DB1               	rlf	??_UART_Init,f
  3620  0D3B  0DB2               	rlf	??_UART_Init+1,f
  3621  0D3C  0DB3               	rlf	??_UART_Init+2,f
  3622  0D3D  0DB4               	rlf	??_UART_Init+3,f
  3623  0D3E                     u2900:	
  3624  0D3E  3EFF               	addlw	-1
  3625  0D3F  1D03               	skipz
  3626  0D40  2D39               	goto	u2905
  3627  0D41  0834               	movf	??_UART_Init+3,w
  3628  0D42  00A3               	movwf	___aldiv@divisor+3
  3629  0D43  0833               	movf	??_UART_Init+2,w
  3630  0D44  00A2               	movwf	___aldiv@divisor+2
  3631  0D45  0832               	movf	??_UART_Init+1,w
  3632  0D46  00A1               	movwf	___aldiv@divisor+1
  3633  0D47  0831               	movf	??_UART_Init,w
  3634  0D48  00A0               	movwf	___aldiv@divisor
  3635  0D49  3001               	movlw	1
  3636  0D4A  00A7               	movwf	___aldiv@dividend+3
  3637  0D4B  30E8               	movlw	232
  3638  0D4C  00A6               	movwf	___aldiv@dividend+2
  3639  0D4D  3048               	movlw	72
  3640  0D4E  00A5               	movwf	___aldiv@dividend+1
  3641  0D4F  3000               	movlw	0
  3642  0D50  00A4               	movwf	___aldiv@dividend
  3643  0D51  120A  158A  2763  120A  158A  	fcall	___aldiv
  3644  0D56  1283               	bcf	3,5	;RP0=0, select bank0
  3645  0D57  1303               	bcf	3,6	;RP1=0, select bank0
  3646  0D58  0820               	movf	?___aldiv,w
  3647  0D59  3EFF               	addlw	255
  3648  0D5A  1683               	bsf	3,5	;RP0=1, select bank1
  3649  0D5B  1303               	bcf	3,6	;RP1=0, select bank1
  3650  0D5C  0099               	movwf	25	;volatile
  3651  0D5D                     l2780:	
  3652                           
  3653                           ;main.c: 380:     INTCONbits.GIE = 1;
  3654  0D5D  178B               	bsf	11,7	;volatile
  3655  0D5E                     l2782:	
  3656                           
  3657                           ;main.c: 381:     INTCONbits.PEIE = 1;
  3658  0D5E  170B               	bsf	11,6	;volatile
  3659  0D5F                     l2784:	
  3660                           
  3661                           ;main.c: 382:     PIE1bits.RCIE = 1;
  3662  0D5F  168C               	bsf	12,5	;volatile
  3663  0D60                     l273:	
  3664  0D60  0008               	return
  3665  0D61                     __end_of_UART_Init:	
  3666                           
  3667                           	psect	text10
  3668  0F63                     __ptext10:	
  3669 ;; *************** function ___aldiv *****************
  3670 ;; Defined at:
  3671 ;;		line 5 in file "C:\Program Files (x86)\Microchip\xc8\v2.10\pic\sources\c90\common\aldiv.c"
  3672 ;; Parameters:    Size  Location     Type
  3673 ;;  divisor         4    0[BANK0 ] long 
  3674 ;;  dividend        4    4[BANK0 ] long 
  3675 ;; Auto vars:     Size  Location     Type
  3676 ;;  quotient        4   11[BANK0 ] long 
  3677 ;;  sign            1   10[BANK0 ] unsigned char 
  3678 ;;  counter         1    9[BANK0 ] unsigned char 
  3679 ;; Return value:  Size  Location     Type
  3680 ;;                  4    0[BANK0 ] long 
  3681 ;; Registers used:
  3682 ;;		wreg, status,2, status,0
  3683 ;; Tracked objects:
  3684 ;;		On entry : 0/0
  3685 ;;		On exit  : 0/0
  3686 ;;		Unchanged: 0/0
  3687 ;; Data sizes:     COMMON   BANK0   BANK1   BANK3   BANK2
  3688 ;;      Params:         0       8       0       0       0
  3689 ;;      Locals:         0       6       0       0       0
  3690 ;;      Temps:          0       1       0       0       0
  3691 ;;      Totals:         0      15       0       0       0
  3692 ;;Total ram usage:       15 bytes
  3693 ;; Hardware stack levels used:    1
  3694 ;; Hardware stack levels required when called:    2
  3695 ;; This function calls:
  3696 ;;		Nothing
  3697 ;; This function is called by:
  3698 ;;		_UART_Init
  3699 ;; This function uses a non-reentrant model
  3700 ;;
  3701                           
  3702                           
  3703                           ;psect for function ___aldiv
  3704  0F63                     ___aldiv:	
  3705  0F63                     l2642:	
  3706                           ;incstack = 0
  3707                           ; Regs used in ___aldiv: [wreg+status,2+status,0]
  3708                           
  3709  0F63  1283               	bcf	3,5	;RP0=0, select bank0
  3710  0F64  1303               	bcf	3,6	;RP1=0, select bank0
  3711  0F65  01AA               	clrf	___aldiv@sign
  3712  0F66                     l2644:	
  3713  0F66  1FA3               	btfss	___aldiv@divisor+3,7
  3714  0F67  2F69               	goto	u2611
  3715  0F68  2F6A               	goto	u2610
  3716  0F69                     u2611:	
  3717  0F69  2F77               	goto	l505
  3718  0F6A                     u2610:	
  3719  0F6A                     l2646:	
  3720  0F6A  09A0               	comf	___aldiv@divisor,f
  3721  0F6B  09A1               	comf	___aldiv@divisor+1,f
  3722  0F6C  09A2               	comf	___aldiv@divisor+2,f
  3723  0F6D  09A3               	comf	___aldiv@divisor+3,f
  3724  0F6E  0AA0               	incf	___aldiv@divisor,f
  3725  0F6F  1903               	skipnz
  3726  0F70  0AA1               	incf	___aldiv@divisor+1,f
  3727  0F71  1903               	skipnz
  3728  0F72  0AA2               	incf	___aldiv@divisor+2,f
  3729  0F73  1903               	skipnz
  3730  0F74  0AA3               	incf	___aldiv@divisor+3,f
  3731  0F75  01AA               	clrf	___aldiv@sign
  3732  0F76  0AAA               	incf	___aldiv@sign,f
  3733  0F77                     l505:	
  3734  0F77  1FA7               	btfss	___aldiv@dividend+3,7
  3735  0F78  2F7A               	goto	u2621
  3736  0F79  2F7B               	goto	u2620
  3737  0F7A                     u2621:	
  3738  0F7A  2F8A               	goto	l2652
  3739  0F7B                     u2620:	
  3740  0F7B                     l2648:	
  3741  0F7B  09A4               	comf	___aldiv@dividend,f
  3742  0F7C  09A5               	comf	___aldiv@dividend+1,f
  3743  0F7D  09A6               	comf	___aldiv@dividend+2,f
  3744  0F7E  09A7               	comf	___aldiv@dividend+3,f
  3745  0F7F  0AA4               	incf	___aldiv@dividend,f
  3746  0F80  1903               	skipnz
  3747  0F81  0AA5               	incf	___aldiv@dividend+1,f
  3748  0F82  1903               	skipnz
  3749  0F83  0AA6               	incf	___aldiv@dividend+2,f
  3750  0F84  1903               	skipnz
  3751  0F85  0AA7               	incf	___aldiv@dividend+3,f
  3752  0F86                     l2650:	
  3753  0F86  3001               	movlw	1
  3754  0F87  00A8               	movwf	??___aldiv
  3755  0F88  0828               	movf	??___aldiv,w
  3756  0F89  06AA               	xorwf	___aldiv@sign,f
  3757  0F8A                     l2652:	
  3758  0F8A  3000               	movlw	0
  3759  0F8B  00AE               	movwf	___aldiv@quotient+3
  3760  0F8C  3000               	movlw	0
  3761  0F8D  00AD               	movwf	___aldiv@quotient+2
  3762  0F8E  3000               	movlw	0
  3763  0F8F  00AC               	movwf	___aldiv@quotient+1
  3764  0F90  3000               	movlw	0
  3765  0F91  00AB               	movwf	___aldiv@quotient
  3766  0F92                     l2654:	
  3767  0F92  0823               	movf	___aldiv@divisor+3,w
  3768  0F93  0422               	iorwf	___aldiv@divisor+2,w
  3769  0F94  0421               	iorwf	___aldiv@divisor+1,w
  3770  0F95  0420               	iorwf	___aldiv@divisor,w
  3771  0F96  1903               	skipnz
  3772  0F97  2F99               	goto	u2631
  3773  0F98  2F9A               	goto	u2630
  3774  0F99                     u2631:	
  3775  0F99  2FE7               	goto	l2674
  3776  0F9A                     u2630:	
  3777  0F9A                     l2656:	
  3778  0F9A  01A9               	clrf	___aldiv@counter
  3779  0F9B  0AA9               	incf	___aldiv@counter,f
  3780  0F9C  2FAA               	goto	l2660
  3781  0F9D                     l2658:	
  3782  0F9D  3001               	movlw	1
  3783  0F9E  00A8               	movwf	??___aldiv
  3784  0F9F                     u2645:	
  3785  0F9F  1003               	clrc
  3786  0FA0  0DA0               	rlf	___aldiv@divisor,f
  3787  0FA1  0DA1               	rlf	___aldiv@divisor+1,f
  3788  0FA2  0DA2               	rlf	___aldiv@divisor+2,f
  3789  0FA3  0DA3               	rlf	___aldiv@divisor+3,f
  3790  0FA4  0BA8               	decfsz	??___aldiv,f
  3791  0FA5  2F9F               	goto	u2645
  3792  0FA6  3001               	movlw	1
  3793  0FA7  00A8               	movwf	??___aldiv
  3794  0FA8  0828               	movf	??___aldiv,w
  3795  0FA9  07A9               	addwf	___aldiv@counter,f
  3796  0FAA                     l2660:	
  3797  0FAA  1FA3               	btfss	___aldiv@divisor+3,7
  3798  0FAB  2FAD               	goto	u2651
  3799  0FAC  2FAE               	goto	u2650
  3800  0FAD                     u2651:	
  3801  0FAD  2F9D               	goto	l2658
  3802  0FAE                     u2650:	
  3803  0FAE                     l2662:	
  3804  0FAE  3001               	movlw	1
  3805  0FAF  00A8               	movwf	??___aldiv
  3806  0FB0                     u2665:	
  3807  0FB0  1003               	clrc
  3808  0FB1  0DAB               	rlf	___aldiv@quotient,f
  3809  0FB2  0DAC               	rlf	___aldiv@quotient+1,f
  3810  0FB3  0DAD               	rlf	___aldiv@quotient+2,f
  3811  0FB4  0DAE               	rlf	___aldiv@quotient+3,f
  3812  0FB5  0BA8               	decfsz	??___aldiv,f
  3813  0FB6  2FB0               	goto	u2665
  3814  0FB7                     l2664:	
  3815  0FB7  0823               	movf	___aldiv@divisor+3,w
  3816  0FB8  0227               	subwf	___aldiv@dividend+3,w
  3817  0FB9  1D03               	skipz
  3818  0FBA  2FC5               	goto	u2675
  3819  0FBB  0822               	movf	___aldiv@divisor+2,w
  3820  0FBC  0226               	subwf	___aldiv@dividend+2,w
  3821  0FBD  1D03               	skipz
  3822  0FBE  2FC5               	goto	u2675
  3823  0FBF  0821               	movf	___aldiv@divisor+1,w
  3824  0FC0  0225               	subwf	___aldiv@dividend+1,w
  3825  0FC1  1D03               	skipz
  3826  0FC2  2FC5               	goto	u2675
  3827  0FC3  0820               	movf	___aldiv@divisor,w
  3828  0FC4  0224               	subwf	___aldiv@dividend,w
  3829  0FC5                     u2675:	
  3830  0FC5  1C03               	skipc
  3831  0FC6  2FC8               	goto	u2671
  3832  0FC7  2FC9               	goto	u2670
  3833  0FC8                     u2671:	
  3834  0FC8  2FD8               	goto	l2670
  3835  0FC9                     u2670:	
  3836  0FC9                     l2666:	
  3837  0FC9  0820               	movf	___aldiv@divisor,w
  3838  0FCA  02A4               	subwf	___aldiv@dividend,f
  3839  0FCB  0821               	movf	___aldiv@divisor+1,w
  3840  0FCC  1C03               	skipc
  3841  0FCD  0F21               	incfsz	___aldiv@divisor+1,w
  3842  0FCE  02A5               	subwf	___aldiv@dividend+1,f
  3843  0FCF  0822               	movf	___aldiv@divisor+2,w
  3844  0FD0  1C03               	skipc
  3845  0FD1  0F22               	incfsz	___aldiv@divisor+2,w
  3846  0FD2  02A6               	subwf	___aldiv@dividend+2,f
  3847  0FD3  0823               	movf	___aldiv@divisor+3,w
  3848  0FD4  1C03               	skipc
  3849  0FD5  0F23               	incfsz	___aldiv@divisor+3,w
  3850  0FD6  02A7               	subwf	___aldiv@dividend+3,f
  3851  0FD7                     l2668:	
  3852  0FD7  142B               	bsf	___aldiv@quotient,0
  3853  0FD8                     l2670:	
  3854  0FD8  3001               	movlw	1
  3855  0FD9                     u2685:	
  3856  0FD9  1003               	clrc
  3857  0FDA  0CA3               	rrf	___aldiv@divisor+3,f
  3858  0FDB  0CA2               	rrf	___aldiv@divisor+2,f
  3859  0FDC  0CA1               	rrf	___aldiv@divisor+1,f
  3860  0FDD  0CA0               	rrf	___aldiv@divisor,f
  3861  0FDE  3EFF               	addlw	-1
  3862  0FDF  1D03               	skipz
  3863  0FE0  2FD9               	goto	u2685
  3864  0FE1                     l2672:	
  3865  0FE1  3001               	movlw	1
  3866  0FE2  02A9               	subwf	___aldiv@counter,f
  3867  0FE3  1D03               	btfss	3,2
  3868  0FE4  2FE6               	goto	u2691
  3869  0FE5  2FE7               	goto	u2690
  3870  0FE6                     u2691:	
  3871  0FE6  2FAE               	goto	l2662
  3872  0FE7                     u2690:	
  3873  0FE7                     l2674:	
  3874  0FE7  082A               	movf	___aldiv@sign,w
  3875  0FE8  1903               	btfsc	3,2
  3876  0FE9  2FEB               	goto	u2701
  3877  0FEA  2FEC               	goto	u2700
  3878  0FEB                     u2701:	
  3879  0FEB  2FF7               	goto	l2678
  3880  0FEC                     u2700:	
  3881  0FEC                     l2676:	
  3882  0FEC  09AB               	comf	___aldiv@quotient,f
  3883  0FED  09AC               	comf	___aldiv@quotient+1,f
  3884  0FEE  09AD               	comf	___aldiv@quotient+2,f
  3885  0FEF  09AE               	comf	___aldiv@quotient+3,f
  3886  0FF0  0AAB               	incf	___aldiv@quotient,f
  3887  0FF1  1903               	skipnz
  3888  0FF2  0AAC               	incf	___aldiv@quotient+1,f
  3889  0FF3  1903               	skipnz
  3890  0FF4  0AAD               	incf	___aldiv@quotient+2,f
  3891  0FF5  1903               	skipnz
  3892  0FF6  0AAE               	incf	___aldiv@quotient+3,f
  3893  0FF7                     l2678:	
  3894  0FF7  082E               	movf	___aldiv@quotient+3,w
  3895  0FF8  00A3               	movwf	?___aldiv+3
  3896  0FF9  082D               	movf	___aldiv@quotient+2,w
  3897  0FFA  00A2               	movwf	?___aldiv+2
  3898  0FFB  082C               	movf	___aldiv@quotient+1,w
  3899  0FFC  00A1               	movwf	?___aldiv+1
  3900  0FFD  082B               	movf	___aldiv@quotient,w
  3901  0FFE  00A0               	movwf	?___aldiv
  3902  0FFF                     l515:	
  3903  0FFF  0008               	return
  3904  1000                     __end_of___aldiv:	
  3905                           
  3906                           	psect	text11
  3907  0C54                     __ptext11:	
  3908 ;; *************** function _SetDisplay *****************
  3909 ;; Defined at:
  3910 ;;		line 447 in file "main.c"
  3911 ;; Parameters:    Size  Location     Type
  3912 ;;  d1              1    wreg     unsigned char 
  3913 ;;  d2              1    0[BANK0 ] unsigned char 
  3914 ;;  d3              1    1[BANK0 ] unsigned char 
  3915 ;;  value           1    2[BANK0 ] unsigned char 
  3916 ;; Auto vars:     Size  Location     Type
  3917 ;;  d1              1    3[BANK0 ] unsigned char 
  3918 ;; Return value:  Size  Location     Type
  3919 ;;                  1    wreg      void 
  3920 ;; Registers used:
  3921 ;;		wreg, status,0
  3922 ;; Tracked objects:
  3923 ;;		On entry : 0/0
  3924 ;;		On exit  : 0/0
  3925 ;;		Unchanged: 0/0
  3926 ;; Data sizes:     COMMON   BANK0   BANK1   BANK3   BANK2
  3927 ;;      Params:         0       3       0       0       0
  3928 ;;      Locals:         0       1       0       0       0
  3929 ;;      Temps:          0       0       0       0       0
  3930 ;;      Totals:         0       4       0       0       0
  3931 ;;Total ram usage:        4 bytes
  3932 ;; Hardware stack levels used:    1
  3933 ;; Hardware stack levels required when called:    2
  3934 ;; This function calls:
  3935 ;;		Nothing
  3936 ;; This function is called by:
  3937 ;;		_main
  3938 ;; This function uses a non-reentrant model
  3939 ;;
  3940                           
  3941                           
  3942                           ;psect for function _SetDisplay
  3943  0C54                     _SetDisplay:	
  3944                           
  3945                           ;incstack = 0
  3946                           ; Regs used in _SetDisplay: [wreg+status,0]
  3947                           ;SetDisplay@d1 stored from wreg
  3948  0C54  1283               	bcf	3,5	;RP0=0, select bank0
  3949  0C55  1303               	bcf	3,6	;RP1=0, select bank0
  3950  0C56  00A3               	movwf	SetDisplay@d1
  3951  0C57                     l2844:	
  3952                           
  3953                           ;main.c: 447: void SetDisplay(char d1, char d2, char d3, char value);main.c: 448: {;main
      +                          .c: 449:     PORTAbits.RA2 = d1;
  3954  0C57  0C23               	rrf	SetDisplay@d1,w
  3955  0C58  1C03               	skipc
  3956  0C59  1105               	bcf	5,2	;volatile
  3957  0C5A  1803               	skipnc
  3958  0C5B  1505               	bsf	5,2	;volatile
  3959                           
  3960                           ;main.c: 450:     PORTAbits.RA3 = d2;
  3961  0C5C  0C20               	rrf	SetDisplay@d2,w
  3962  0C5D  1C03               	skipc
  3963  0C5E  1185               	bcf	5,3	;volatile
  3964  0C5F  1803               	skipnc
  3965  0C60  1585               	bsf	5,3	;volatile
  3966                           
  3967                           ;main.c: 451:     PORTAbits.RA4 = d3;
  3968  0C61  0C21               	rrf	SetDisplay@d3,w
  3969  0C62  1C03               	skipc
  3970  0C63  1205               	bcf	5,4	;volatile
  3971  0C64  1803               	skipnc
  3972  0C65  1605               	bsf	5,4	;volatile
  3973  0C66                     l2846:	
  3974                           
  3975                           ;main.c: 452:     PORTD = value;
  3976  0C66  0822               	movf	SetDisplay@value,w
  3977  0C67  0088               	movwf	8	;volatile
  3978  0C68                     l305:	
  3979  0C68  0008               	return
  3980  0C69                     __end_of_SetDisplay:	
  3981                           
  3982                           	psect	text12
  3983  073C                     __ptext12:	
  3984 ;; *************** function _SetDefaultTimers *****************
  3985 ;; Defined at:
  3986 ;;		line 543 in file "main.c"
  3987 ;; Parameters:    Size  Location     Type
  3988 ;;  rosso           2    0[BANK0 ] int 
  3989 ;;  verde           2    2[BANK0 ] int 
  3990 ;;  giallo          2    4[BANK0 ] int 
  3991 ;; Auto vars:     Size  Location     Type
  3992 ;;  i               2   14[BANK0 ] int 
  3993 ;;  l               2   12[BANK0 ] int 
  3994 ;; Return value:  Size  Location     Type
  3995 ;;                  1    wreg      void 
  3996 ;; Registers used:
  3997 ;;		wreg, fsr0l, fsr0h, status,2, status,0, btemp+1
  3998 ;; Tracked objects:
  3999 ;;		On entry : 0/0
  4000 ;;		On exit  : 0/0
  4001 ;;		Unchanged: 0/0
  4002 ;; Data sizes:     COMMON   BANK0   BANK1   BANK3   BANK2
  4003 ;;      Params:         0       6       0       0       0
  4004 ;;      Locals:         0       4       0       0       0
  4005 ;;      Temps:          0       6       0       0       0
  4006 ;;      Totals:         0      16       0       0       0
  4007 ;;Total ram usage:       16 bytes
  4008 ;; Hardware stack levels used:    1
  4009 ;; Hardware stack levels required when called:    2
  4010 ;; This function calls:
  4011 ;;		Nothing
  4012 ;; This function is called by:
  4013 ;;		_main
  4014 ;; This function uses a non-reentrant model
  4015 ;;
  4016                           
  4017                           
  4018                           ;psect for function _SetDefaultTimers
  4019  073C                     _SetDefaultTimers:	
  4020  073C                     l2786:	
  4021                           ;incstack = 0
  4022                           ; Regs used in _SetDefaultTimers: [wreg-fsr0h+status,2+status,0+btemp+1]
  4023                           
  4024                           
  4025                           ;main.c: 543: void SetDefaultTimers(int rosso, int verde, int giallo);main.c: 544: {;mai
      +                          n.c: 545:     for (int l = 0; l < 16; l++)
  4026  073C  1283               	bcf	3,5	;RP0=0, select bank0
  4027  073D  1303               	bcf	3,6	;RP1=0, select bank0
  4028  073E  01AC               	clrf	SetDefaultTimers@l
  4029  073F  01AD               	clrf	SetDefaultTimers@l+1
  4030  0740                     l2792:	
  4031                           
  4032                           ;main.c: 546:     {;main.c: 547:         for (int i = 0; i < 3; i++)
  4033  0740  1283               	bcf	3,5	;RP0=0, select bank0
  4034  0741  1303               	bcf	3,6	;RP1=0, select bank0
  4035  0742  01AE               	clrf	SetDefaultTimers@i
  4036  0743  01AF               	clrf	SetDefaultTimers@i+1
  4037  0744  2FA2               	goto	l2806
  4038  0745                     l2798:	
  4039                           
  4040                           ;main.c: 552:                 (*(Semafori[l])).new_times[i] = rosso;
  4041  0745  082C               	movf	SetDefaultTimers@l,w
  4042  0746  00A6               	movwf	??_SetDefaultTimers
  4043  0747  0726               	addwf	??_SetDefaultTimers,w
  4044  0748  3ECF               	addlw	(low (_Semafori| 0))& (0+255)
  4045  0749  0084               	movwf	4
  4046  074A  1383               	bcf	3,7	;select IRP bank1
  4047  074B  0800               	movf	0,w
  4048  074C  00A7               	movwf	??_SetDefaultTimers+1
  4049  074D  0A84               	incf	4,f
  4050  074E  0800               	movf	0,w
  4051  074F  00A8               	movwf	??_SetDefaultTimers+2
  4052  0750  082E               	movf	SetDefaultTimers@i,w
  4053  0751  00A9               	movwf	??_SetDefaultTimers+3
  4054  0752  0729               	addwf	??_SetDefaultTimers+3,w
  4055  0753  0727               	addwf	??_SetDefaultTimers+1,w
  4056  0754  00AA               	movwf	??_SetDefaultTimers+4
  4057  0755  0828               	movf	??_SetDefaultTimers+2,w
  4058  0756  1803               	skipnc
  4059  0757  3E01               	addlw	1
  4060  0758  00AB               	movwf	??_SetDefaultTimers+5
  4061  0759  082A               	movf	??_SetDefaultTimers+4,w
  4062  075A  0084               	movwf	4
  4063  075B  1783               	bsf	3,7
  4064  075C  1C2B               	btfss	??_SetDefaultTimers+5,0
  4065  075D  1383               	bcf	3,7
  4066  075E  0820               	movf	SetDefaultTimers@rosso,w
  4067  075F  0080               	movwf	0
  4068  0760  0A84               	incf	4,f
  4069  0761  0821               	movf	SetDefaultTimers@rosso+1,w
  4070  0762  0080               	movwf	0
  4071                           
  4072                           ;main.c: 553:                 break;
  4073  0763  2FB4               	goto	l2808
  4074  0764                     l2800:	
  4075                           
  4076                           ;main.c: 555:                 (*(Semafori[l])).new_times[i] = verde;
  4077  0764  082C               	movf	SetDefaultTimers@l,w
  4078  0765  00A6               	movwf	??_SetDefaultTimers
  4079  0766  0726               	addwf	??_SetDefaultTimers,w
  4080  0767  3ECF               	addlw	(low (_Semafori| 0))& (0+255)
  4081  0768  0084               	movwf	4
  4082  0769  1383               	bcf	3,7	;select IRP bank1
  4083  076A  0800               	movf	0,w
  4084  076B  00A7               	movwf	??_SetDefaultTimers+1
  4085  076C  0A84               	incf	4,f
  4086  076D  0800               	movf	0,w
  4087  076E  00A8               	movwf	??_SetDefaultTimers+2
  4088  076F  082E               	movf	SetDefaultTimers@i,w
  4089  0770  00A9               	movwf	??_SetDefaultTimers+3
  4090  0771  0729               	addwf	??_SetDefaultTimers+3,w
  4091  0772  0727               	addwf	??_SetDefaultTimers+1,w
  4092  0773  00AA               	movwf	??_SetDefaultTimers+4
  4093  0774  0828               	movf	??_SetDefaultTimers+2,w
  4094  0775  1803               	skipnc
  4095  0776  3E01               	addlw	1
  4096  0777  00AB               	movwf	??_SetDefaultTimers+5
  4097  0778  082A               	movf	??_SetDefaultTimers+4,w
  4098  0779  0084               	movwf	4
  4099  077A  1783               	bsf	3,7
  4100  077B  1C2B               	btfss	??_SetDefaultTimers+5,0
  4101  077C  1383               	bcf	3,7
  4102  077D  0822               	movf	SetDefaultTimers@verde,w
  4103  077E  0080               	movwf	0
  4104  077F  0A84               	incf	4,f
  4105  0780  0823               	movf	SetDefaultTimers@verde+1,w
  4106  0781  0080               	movwf	0
  4107                           
  4108                           ;main.c: 556:                 break;
  4109  0782  2FB4               	goto	l2808
  4110  0783                     l2802:	
  4111                           
  4112                           ;main.c: 558:                 (*(Semafori[l])).new_times[i] = giallo;
  4113  0783  082C               	movf	SetDefaultTimers@l,w
  4114  0784  00A6               	movwf	??_SetDefaultTimers
  4115  0785  0726               	addwf	??_SetDefaultTimers,w
  4116  0786  3ECF               	addlw	(low (_Semafori| 0))& (0+255)
  4117  0787  0084               	movwf	4
  4118  0788  1383               	bcf	3,7	;select IRP bank1
  4119  0789  0800               	movf	0,w
  4120  078A  00A7               	movwf	??_SetDefaultTimers+1
  4121  078B  0A84               	incf	4,f
  4122  078C  0800               	movf	0,w
  4123  078D  00A8               	movwf	??_SetDefaultTimers+2
  4124  078E  082E               	movf	SetDefaultTimers@i,w
  4125  078F  00A9               	movwf	??_SetDefaultTimers+3
  4126  0790  0729               	addwf	??_SetDefaultTimers+3,w
  4127  0791  0727               	addwf	??_SetDefaultTimers+1,w
  4128  0792  00AA               	movwf	??_SetDefaultTimers+4
  4129  0793  0828               	movf	??_SetDefaultTimers+2,w
  4130  0794  1803               	skipnc
  4131  0795  3E01               	addlw	1
  4132  0796  00AB               	movwf	??_SetDefaultTimers+5
  4133  0797  082A               	movf	??_SetDefaultTimers+4,w
  4134  0798  0084               	movwf	4
  4135  0799  1783               	bsf	3,7
  4136  079A  1C2B               	btfss	??_SetDefaultTimers+5,0
  4137  079B  1383               	bcf	3,7
  4138  079C  0824               	movf	SetDefaultTimers@giallo,w
  4139  079D  0080               	movwf	0
  4140  079E  0A84               	incf	4,f
  4141  079F  0825               	movf	SetDefaultTimers@giallo+1,w
  4142  07A0  0080               	movwf	0
  4143                           
  4144                           ;main.c: 559:                 break;
  4145  07A1  2FB4               	goto	l2808
  4146  07A2                     l2806:	
  4147                           
  4148                           ; Switch on 2 bytes has been partitioned into a top level switch of size 1, and 1 sub-sw
      +                          itches
  4149                           ; Switch size 1, requested type "simple"
  4150                           ; Number of cases is 1, Range of values is 0 to 0
  4151                           ; switch strategies available:
  4152                           ; Name         Instructions Cycles
  4153                           ; simple_byte            4     3 (average)
  4154                           ; direct_byte           11     8 (fixed)
  4155                           ; jumptable            260     6 (fixed)
  4156                           ;	Chosen strategy is simple_byte
  4157  07A2  1283               	bcf	3,5	;RP0=0, select bank0
  4158  07A3  1303               	bcf	3,6	;RP1=0, select bank0
  4159  07A4  082F               	movf	SetDefaultTimers@i+1,w
  4160  07A5  3A00               	xorlw	0	; case 0
  4161  07A6  1903               	skipnz
  4162  07A7  2FA9               	goto	l3192
  4163  07A8  2FB4               	goto	l2808
  4164  07A9                     l3192:	
  4165                           
  4166                           ; Switch size 1, requested type "simple"
  4167                           ; Number of cases is 3, Range of values is 0 to 2
  4168                           ; switch strategies available:
  4169                           ; Name         Instructions Cycles
  4170                           ; simple_byte           10     6 (average)
  4171                           ; direct_byte           17     8 (fixed)
  4172                           ; jumptable            260     6 (fixed)
  4173                           ;	Chosen strategy is simple_byte
  4174  07A9  082E               	movf	SetDefaultTimers@i,w
  4175  07AA  3A00               	xorlw	0	; case 0
  4176  07AB  1903               	skipnz
  4177  07AC  2F45               	goto	l2798
  4178  07AD  3A01               	xorlw	1	; case 1
  4179  07AE  1903               	skipnz
  4180  07AF  2F64               	goto	l2800
  4181  07B0  3A03               	xorlw	3	; case 2
  4182  07B1  1903               	skipnz
  4183  07B2  2F83               	goto	l2802
  4184  07B3  2FB4               	goto	l2808
  4185  07B4                     l2808:	
  4186                           
  4187                           ;main.c: 561:         }
  4188  07B4  3001               	movlw	1
  4189  07B5  07AE               	addwf	SetDefaultTimers@i,f
  4190  07B6  1803               	skipnc
  4191  07B7  0AAF               	incf	SetDefaultTimers@i+1,f
  4192  07B8  3000               	movlw	0
  4193  07B9  07AF               	addwf	SetDefaultTimers@i+1,f
  4194  07BA                     l2810:	
  4195  07BA  082F               	movf	SetDefaultTimers@i+1,w
  4196  07BB  3A80               	xorlw	128
  4197  07BC  00FF               	movwf	btemp+1
  4198  07BD  3080               	movlw	128
  4199  07BE  027F               	subwf	btemp+1,w
  4200  07BF  1D03               	skipz
  4201  07C0  2FC3               	goto	u2915
  4202  07C1  3003               	movlw	3
  4203  07C2  022E               	subwf	SetDefaultTimers@i,w
  4204  07C3                     u2915:	
  4205  07C3  1C03               	skipc
  4206  07C4  2FC6               	goto	u2911
  4207  07C5  2FC7               	goto	u2910
  4208  07C6                     u2911:	
  4209  07C6  2FA2               	goto	l2806
  4210  07C7                     u2910:	
  4211  07C7                     l2812:	
  4212                           
  4213                           ;main.c: 562:     }
  4214  07C7  3001               	movlw	1
  4215  07C8  1283               	bcf	3,5	;RP0=0, select bank0
  4216  07C9  1303               	bcf	3,6	;RP1=0, select bank0
  4217  07CA  07AC               	addwf	SetDefaultTimers@l,f
  4218  07CB  1803               	skipnc
  4219  07CC  0AAD               	incf	SetDefaultTimers@l+1,f
  4220  07CD  3000               	movlw	0
  4221  07CE  07AD               	addwf	SetDefaultTimers@l+1,f
  4222  07CF                     l2814:	
  4223  07CF  082D               	movf	SetDefaultTimers@l+1,w
  4224  07D0  3A80               	xorlw	128
  4225  07D1  00FF               	movwf	btemp+1
  4226  07D2  3080               	movlw	128
  4227  07D3  027F               	subwf	btemp+1,w
  4228  07D4  1D03               	skipz
  4229  07D5  2FD8               	goto	u2925
  4230  07D6  3010               	movlw	16
  4231  07D7  022C               	subwf	SetDefaultTimers@l,w
  4232  07D8                     u2925:	
  4233  07D8  1C03               	skipc
  4234  07D9  2FDB               	goto	u2921
  4235  07DA  2FDC               	goto	u2920
  4236  07DB                     u2921:	
  4237  07DB  2F40               	goto	l2792
  4238  07DC                     u2920:	
  4239  07DC                     l344:	
  4240  07DC  0008               	return
  4241  07DD                     __end_of_SetDefaultTimers:	
  4242                           
  4243                           	psect	text13
  4244  0D9B                     __ptext13:	
  4245 ;; *************** function _GetTime *****************
  4246 ;; Defined at:
  4247 ;;		line 421 in file "main.c"
  4248 ;; Parameters:    Size  Location     Type
  4249 ;;  index           2    0[BANK0 ] int 
  4250 ;; Auto vars:     Size  Location     Type
  4251 ;;  time            2    5[BANK0 ] int 
  4252 ;;  shortInt        1    4[BANK0 ] struct .
  4253 ;; Return value:  Size  Location     Type
  4254 ;;                  2    0[BANK0 ] int 
  4255 ;; Registers used:
  4256 ;;		wreg, fsr0l, fsr0h, status,2, status,0, btemp+1
  4257 ;; Tracked objects:
  4258 ;;		On entry : 0/0
  4259 ;;		On exit  : 0/0
  4260 ;;		Unchanged: 0/0
  4261 ;; Data sizes:     COMMON   BANK0   BANK1   BANK3   BANK2
  4262 ;;      Params:         0       2       0       0       0
  4263 ;;      Locals:         0       3       0       0       0
  4264 ;;      Temps:          0       2       0       0       0
  4265 ;;      Totals:         0       7       0       0       0
  4266 ;;Total ram usage:        7 bytes
  4267 ;; Hardware stack levels used:    1
  4268 ;; Hardware stack levels required when called:    2
  4269 ;; This function calls:
  4270 ;;		Nothing
  4271 ;; This function is called by:
  4272 ;;		_main
  4273 ;; This function uses a non-reentrant model
  4274 ;;
  4275                           
  4276                           
  4277                           ;psect for function _GetTime
  4278  0D9B                     _GetTime:	
  4279  0D9B                     l2820:	
  4280                           ;incstack = 0
  4281                           ; Regs used in _GetTime: [wreg-fsr0h+status,2+status,0+btemp+1]
  4282                           
  4283                           
  4284                           ;main.c: 421: int GetTime(int index);main.c: 422: {;main.c: 423:     int time;;main.c: 4
      +                          27:     } shortInt;;main.c: 429:     shortInt.Val = dataFromGateway[index + 3] & 0x7F;
  4285  0D9B  1283               	bcf	3,5	;RP0=0, select bank0
  4286  0D9C  1303               	bcf	3,6	;RP1=0, select bank0
  4287  0D9D  0820               	movf	GetTime@index,w
  4288  0D9E  3EA3               	addlw	(low ((_dataFromGateway| 0+3)))& (0+255)
  4289  0D9F  0084               	movwf	4
  4290  0DA0  307F               	movlw	127
  4291  0DA1  1383               	bcf	3,7	;select IRP bank1
  4292  0DA2  0500               	andwf	0,w
  4293  0DA3  00A2               	movwf	??_GetTime
  4294  0DA4  0824               	movf	GetTime@shortInt,w
  4295  0DA5  0622               	xorwf	??_GetTime,w
  4296  0DA6  3980               	andlw	-128
  4297  0DA7  0622               	xorwf	??_GetTime,w
  4298  0DA8  00A4               	movwf	GetTime@shortInt
  4299  0DA9                     l2822:	
  4300                           
  4301                           ;main.c: 430:     time = shortInt.Val;
  4302  0DA9  0824               	movf	GetTime@shortInt,w
  4303  0DAA  397F               	andlw	127
  4304  0DAB  00A2               	movwf	??_GetTime
  4305  0DAC  01A3               	clrf	??_GetTime+1
  4306  0DAD  0822               	movf	??_GetTime,w
  4307  0DAE  00A5               	movwf	GetTime@time
  4308  0DAF  0823               	movf	??_GetTime+1,w
  4309  0DB0  00A6               	movwf	GetTime@time+1
  4310  0DB1                     l2824:	
  4311                           
  4312                           ;main.c: 431:     time = (time << 7) & 0x80;
  4313  0DB1  0826               	movf	GetTime@time+1,w
  4314  0DB2  00A3               	movwf	??_GetTime+1
  4315  0DB3  0825               	movf	GetTime@time,w
  4316  0DB4  00A2               	movwf	??_GetTime
  4317  0DB5  3007               	movlw	7
  4318  0DB6  00FF               	movwf	btemp+1
  4319  0DB7                     u2935:	
  4320  0DB7  1003               	clrc
  4321  0DB8  0DA2               	rlf	??_GetTime,f
  4322  0DB9  0DA3               	rlf	??_GetTime+1,f
  4323  0DBA  0BFF               	decfsz	btemp+1,f
  4324  0DBB  2DB7               	goto	u2935
  4325  0DBC  3080               	movlw	128
  4326  0DBD  0522               	andwf	??_GetTime,w
  4327  0DBE  00A5               	movwf	GetTime@time
  4328  0DBF  3000               	movlw	0
  4329  0DC0  0523               	andwf	??_GetTime+1,w
  4330  0DC1  00A6               	movwf	GetTime@time+1
  4331  0DC2                     l2826:	
  4332                           
  4333                           ;main.c: 433:     shortInt.Val = dataFromGateway[index + 2] & 0x7F;
  4334  0DC2  0820               	movf	GetTime@index,w
  4335  0DC3  3EA2               	addlw	(low ((_dataFromGateway| 0+2)))& (0+255)
  4336  0DC4  0084               	movwf	4
  4337  0DC5  307F               	movlw	127
  4338  0DC6  0500               	andwf	0,w
  4339  0DC7  00A2               	movwf	??_GetTime
  4340  0DC8  0824               	movf	GetTime@shortInt,w
  4341  0DC9  0622               	xorwf	??_GetTime,w
  4342  0DCA  3980               	andlw	-128
  4343  0DCB  0622               	xorwf	??_GetTime,w
  4344  0DCC  00A4               	movwf	GetTime@shortInt
  4345  0DCD                     l2828:	
  4346                           
  4347                           ;main.c: 434:     time = time | shortInt.Val;
  4348  0DCD  0824               	movf	GetTime@shortInt,w
  4349  0DCE  397F               	andlw	127
  4350  0DCF  00A2               	movwf	??_GetTime
  4351  0DD0  0825               	movf	GetTime@time,w
  4352  0DD1  0422               	iorwf	??_GetTime,w
  4353  0DD2  00A5               	movwf	GetTime@time
  4354  0DD3  0826               	movf	GetTime@time+1,w
  4355  0DD4  00A6               	movwf	GetTime@time+1
  4356  0DD5                     l2830:	
  4357                           
  4358                           ;main.c: 436:     return time;
  4359  0DD5  0826               	movf	GetTime@time+1,w
  4360  0DD6  00A1               	movwf	?_GetTime+1
  4361  0DD7  0825               	movf	GetTime@time,w
  4362  0DD8  00A0               	movwf	?_GetTime
  4363  0DD9                     l299:	
  4364  0DD9  0008               	return
  4365  0DDA                     __end_of_GetTime:	
  4366                           
  4367                           	psect	text14
  4368  0EF8                     __ptext14:	
  4369 ;; *************** function _GetDigits *****************
  4370 ;; Defined at:
  4371 ;;		line 439 in file "main.c"
  4372 ;; Parameters:    Size  Location     Type
  4373 ;;  Time            2   16[BANK0 ] int 
  4374 ;; Auto vars:     Size  Location     Type
  4375 ;;		None
  4376 ;; Return value:  Size  Location     Type
  4377 ;;                  1    wreg      void 
  4378 ;; Registers used:
  4379 ;;		wreg, status,2, status,0, pclath, cstack
  4380 ;; Tracked objects:
  4381 ;;		On entry : 0/0
  4382 ;;		On exit  : 0/0
  4383 ;;		Unchanged: 0/0
  4384 ;; Data sizes:     COMMON   BANK0   BANK1   BANK3   BANK2
  4385 ;;      Params:         0       2       0       0       0
  4386 ;;      Locals:         0       2       0       0       0
  4387 ;;      Temps:          0       3       0       0       0
  4388 ;;      Totals:         0       7       0       0       0
  4389 ;;Total ram usage:        7 bytes
  4390 ;; Hardware stack levels used:    1
  4391 ;; Hardware stack levels required when called:    3
  4392 ;; This function calls:
  4393 ;;		___awdiv
  4394 ;;		___awmod
  4395 ;; This function is called by:
  4396 ;;		_main
  4397 ;; This function uses a non-reentrant model
  4398 ;;
  4399                           
  4400                           
  4401                           ;psect for function _GetDigits
  4402  0EF8                     _GetDigits:	
  4403  0EF8                     l2834:	
  4404                           ;incstack = 0
  4405                           ; Regs used in _GetDigits: [wreg+status,2+status,0+pclath+cstack]
  4406                           
  4407                           
  4408                           ;main.c: 439: void GetDigits(int Time);main.c: 440: {;main.c: 441:     countdown = Time;
  4409  0EF8  1283               	bcf	3,5	;RP0=0, select bank0
  4410  0EF9  1303               	bcf	3,6	;RP1=0, select bank0
  4411  0EFA  0830               	movf	GetDigits@Time,w
  4412  0EFB  00B2               	movwf	??_GetDigits
  4413  0EFC  0832               	movf	??_GetDigits,w
  4414  0EFD  00DA               	movwf	_countdown
  4415  0EFE                     l2836:	
  4416                           
  4417                           ;main.c: 442:     centinaia = countdown / 100;
  4418  0EFE  3064               	movlw	100
  4419  0EFF  00A7               	movwf	___awdiv@divisor
  4420  0F00  3000               	movlw	0
  4421  0F01  00A8               	movwf	___awdiv@divisor+1
  4422  0F02  085A               	movf	_countdown,w
  4423  0F03  00B2               	movwf	??_GetDigits
  4424  0F04  01B3               	clrf	??_GetDigits+1
  4425  0F05  0832               	movf	??_GetDigits,w
  4426  0F06  00A9               	movwf	___awdiv@dividend
  4427  0F07  0833               	movf	??_GetDigits+1,w
  4428  0F08  00AA               	movwf	___awdiv@dividend+1
  4429  0F09  120A  158A  268F  120A  158A  	fcall	___awdiv
  4430  0F0E  1283               	bcf	3,5	;RP0=0, select bank0
  4431  0F0F  1303               	bcf	3,6	;RP1=0, select bank0
  4432  0F10  0827               	movf	?___awdiv,w
  4433  0F11  00B4               	movwf	??_GetDigits+2
  4434  0F12  0834               	movf	??_GetDigits+2,w
  4435  0F13  00DD               	movwf	_centinaia
  4436  0F14                     l2838:	
  4437                           
  4438                           ;main.c: 443:     decine = (countdown % 100) / 10;
  4439  0F14  300A               	movlw	10
  4440  0F15  00A7               	movwf	___awdiv@divisor
  4441  0F16  3000               	movlw	0
  4442  0F17  00A8               	movwf	___awdiv@divisor+1
  4443  0F18  085A               	movf	_countdown,w
  4444  0F19  00B2               	movwf	??_GetDigits
  4445  0F1A  01B3               	clrf	??_GetDigits+1
  4446  0F1B  0832               	movf	??_GetDigits,w
  4447  0F1C  00A2               	movwf	___awmod@dividend
  4448  0F1D  0833               	movf	??_GetDigits+1,w
  4449  0F1E  00A3               	movwf	___awmod@dividend+1
  4450  0F1F  3064               	movlw	100
  4451  0F20  00A0               	movwf	___awmod@divisor
  4452  0F21  3000               	movlw	0
  4453  0F22  00A1               	movwf	___awmod@divisor+1
  4454  0F23  120A  158A  2634  120A  158A  	fcall	___awmod
  4455  0F28  1283               	bcf	3,5	;RP0=0, select bank0
  4456  0F29  1303               	bcf	3,6	;RP1=0, select bank0
  4457  0F2A  0821               	movf	?___awmod+1,w
  4458  0F2B  00AA               	movwf	___awdiv@dividend+1
  4459  0F2C  0820               	movf	?___awmod,w
  4460  0F2D  00A9               	movwf	___awdiv@dividend
  4461  0F2E  120A  158A  268F  120A  158A  	fcall	___awdiv
  4462  0F33  1283               	bcf	3,5	;RP0=0, select bank0
  4463  0F34  1303               	bcf	3,6	;RP1=0, select bank0
  4464  0F35  0827               	movf	?___awdiv,w
  4465  0F36  00B4               	movwf	??_GetDigits+2
  4466  0F37  0834               	movf	??_GetDigits+2,w
  4467  0F38  00DE               	movwf	_decine
  4468  0F39                     l2840:	
  4469                           
  4470                           ;main.c: 444:     unita = (countdown % 100) % 10;
  4471  0F39  085A               	movf	_countdown,w
  4472  0F3A  00B2               	movwf	??_GetDigits
  4473  0F3B  01B3               	clrf	??_GetDigits+1
  4474  0F3C  0832               	movf	??_GetDigits,w
  4475  0F3D  00A2               	movwf	___awmod@dividend
  4476  0F3E  0833               	movf	??_GetDigits+1,w
  4477  0F3F  00A3               	movwf	___awmod@dividend+1
  4478  0F40  3064               	movlw	100
  4479  0F41  00A0               	movwf	___awmod@divisor
  4480  0F42  3000               	movlw	0
  4481  0F43  00A1               	movwf	___awmod@divisor+1
  4482  0F44  120A  158A  2634  120A  158A  	fcall	___awmod
  4483  0F49  1283               	bcf	3,5	;RP0=0, select bank0
  4484  0F4A  1303               	bcf	3,6	;RP1=0, select bank0
  4485  0F4B  0821               	movf	?___awmod+1,w
  4486  0F4C  00B6               	movwf	_GetDigits$1152+1
  4487  0F4D  0820               	movf	?___awmod,w
  4488  0F4E  00B5               	movwf	_GetDigits$1152
  4489  0F4F                     l2842:	
  4490                           
  4491                           ;main.c: 444:     unita = (countdown % 100) % 10;
  4492  0F4F  300A               	movlw	10
  4493  0F50  00A0               	movwf	___awmod@divisor
  4494  0F51  3000               	movlw	0
  4495  0F52  00A1               	movwf	___awmod@divisor+1
  4496  0F53  0836               	movf	_GetDigits$1152+1,w
  4497  0F54  00A3               	movwf	___awmod@dividend+1
  4498  0F55  0835               	movf	_GetDigits$1152,w
  4499  0F56  00A2               	movwf	___awmod@dividend
  4500  0F57  120A  158A  2634  120A  158A  	fcall	___awmod
  4501  0F5C  1283               	bcf	3,5	;RP0=0, select bank0
  4502  0F5D  1303               	bcf	3,6	;RP1=0, select bank0
  4503  0F5E  0820               	movf	?___awmod,w
  4504  0F5F  00B2               	movwf	??_GetDigits
  4505  0F60  0832               	movf	??_GetDigits,w
  4506  0F61  00DF               	movwf	_unita
  4507  0F62                     l302:	
  4508  0F62  0008               	return
  4509  0F63                     __end_of_GetDigits:	
  4510                           
  4511                           	psect	text15
  4512  0E34                     __ptext15:	
  4513 ;; *************** function ___awmod *****************
  4514 ;; Defined at:
  4515 ;;		line 5 in file "C:\Program Files (x86)\Microchip\xc8\v2.10\pic\sources\c90\common\awmod.c"
  4516 ;; Parameters:    Size  Location     Type
  4517 ;;  divisor         2    0[BANK0 ] int 
  4518 ;;  dividend        2    2[BANK0 ] int 
  4519 ;; Auto vars:     Size  Location     Type
  4520 ;;  sign            1    6[BANK0 ] unsigned char 
  4521 ;;  counter         1    5[BANK0 ] unsigned char 
  4522 ;; Return value:  Size  Location     Type
  4523 ;;                  2    0[BANK0 ] int 
  4524 ;; Registers used:
  4525 ;;		wreg, status,2, status,0
  4526 ;; Tracked objects:
  4527 ;;		On entry : 0/0
  4528 ;;		On exit  : 0/0
  4529 ;;		Unchanged: 0/0
  4530 ;; Data sizes:     COMMON   BANK0   BANK1   BANK3   BANK2
  4531 ;;      Params:         0       4       0       0       0
  4532 ;;      Locals:         0       2       0       0       0
  4533 ;;      Temps:          0       1       0       0       0
  4534 ;;      Totals:         0       7       0       0       0
  4535 ;;Total ram usage:        7 bytes
  4536 ;; Hardware stack levels used:    1
  4537 ;; Hardware stack levels required when called:    2
  4538 ;; This function calls:
  4539 ;;		Nothing
  4540 ;; This function is called by:
  4541 ;;		_main
  4542 ;;		_GetDigits
  4543 ;;		_intToString
  4544 ;; This function uses a non-reentrant model
  4545 ;;
  4546                           
  4547                           
  4548                           ;psect for function ___awmod
  4549  0E34                     ___awmod:	
  4550  0E34                     l2726:	
  4551                           ;incstack = 0
  4552                           ; Regs used in ___awmod: [wreg+status,2+status,0]
  4553                           
  4554  0E34  1283               	bcf	3,5	;RP0=0, select bank0
  4555  0E35  1303               	bcf	3,6	;RP1=0, select bank0
  4556  0E36  01A6               	clrf	___awmod@sign
  4557  0E37                     l2728:	
  4558  0E37  1FA3               	btfss	___awmod@dividend+1,7
  4559  0E38  2E3A               	goto	u2811
  4560  0E39  2E3B               	goto	u2810
  4561  0E3A                     u2811:	
  4562  0E3A  2E42               	goto	l2734
  4563  0E3B                     u2810:	
  4564  0E3B                     l2730:	
  4565  0E3B  09A2               	comf	___awmod@dividend,f
  4566  0E3C  09A3               	comf	___awmod@dividend+1,f
  4567  0E3D  0AA2               	incf	___awmod@dividend,f
  4568  0E3E  1903               	skipnz
  4569  0E3F  0AA3               	incf	___awmod@dividend+1,f
  4570  0E40                     l2732:	
  4571  0E40  01A6               	clrf	___awmod@sign
  4572  0E41  0AA6               	incf	___awmod@sign,f
  4573  0E42                     l2734:	
  4574  0E42  1FA1               	btfss	___awmod@divisor+1,7
  4575  0E43  2E45               	goto	u2821
  4576  0E44  2E46               	goto	u2820
  4577  0E45                     u2821:	
  4578  0E45  2E4B               	goto	l2738
  4579  0E46                     u2820:	
  4580  0E46                     l2736:	
  4581  0E46  09A0               	comf	___awmod@divisor,f
  4582  0E47  09A1               	comf	___awmod@divisor+1,f
  4583  0E48  0AA0               	incf	___awmod@divisor,f
  4584  0E49  1903               	skipnz
  4585  0E4A  0AA1               	incf	___awmod@divisor+1,f
  4586  0E4B                     l2738:	
  4587  0E4B  0820               	movf	___awmod@divisor,w
  4588  0E4C  0421               	iorwf	___awmod@divisor+1,w
  4589  0E4D  1903               	btfsc	3,2
  4590  0E4E  2E50               	goto	u2831
  4591  0E4F  2E51               	goto	u2830
  4592  0E50                     u2831:	
  4593  0E50  2E80               	goto	l2756
  4594  0E51                     u2830:	
  4595  0E51                     l2740:	
  4596  0E51  01A5               	clrf	___awmod@counter
  4597  0E52  0AA5               	incf	___awmod@counter,f
  4598  0E53  2E5F               	goto	l2746
  4599  0E54                     l2742:	
  4600  0E54  3001               	movlw	1
  4601  0E55                     u2845:	
  4602  0E55  1003               	clrc
  4603  0E56  0DA0               	rlf	___awmod@divisor,f
  4604  0E57  0DA1               	rlf	___awmod@divisor+1,f
  4605  0E58  3EFF               	addlw	-1
  4606  0E59  1D03               	skipz
  4607  0E5A  2E55               	goto	u2845
  4608  0E5B                     l2744:	
  4609  0E5B  3001               	movlw	1
  4610  0E5C  00A4               	movwf	??___awmod
  4611  0E5D  0824               	movf	??___awmod,w
  4612  0E5E  07A5               	addwf	___awmod@counter,f
  4613  0E5F                     l2746:	
  4614  0E5F  1FA1               	btfss	___awmod@divisor+1,7
  4615  0E60  2E62               	goto	u2851
  4616  0E61  2E63               	goto	u2850
  4617  0E62                     u2851:	
  4618  0E62  2E54               	goto	l2742
  4619  0E63                     u2850:	
  4620  0E63                     l2748:	
  4621  0E63  0821               	movf	___awmod@divisor+1,w
  4622  0E64  0223               	subwf	___awmod@dividend+1,w
  4623  0E65  1D03               	skipz
  4624  0E66  2E69               	goto	u2865
  4625  0E67  0820               	movf	___awmod@divisor,w
  4626  0E68  0222               	subwf	___awmod@dividend,w
  4627  0E69                     u2865:	
  4628  0E69  1C03               	skipc
  4629  0E6A  2E6C               	goto	u2861
  4630  0E6B  2E6D               	goto	u2860
  4631  0E6C                     u2861:	
  4632  0E6C  2E73               	goto	l2752
  4633  0E6D                     u2860:	
  4634  0E6D                     l2750:	
  4635  0E6D  0820               	movf	___awmod@divisor,w
  4636  0E6E  02A2               	subwf	___awmod@dividend,f
  4637  0E6F  0821               	movf	___awmod@divisor+1,w
  4638  0E70  1C03               	skipc
  4639  0E71  03A3               	decf	___awmod@dividend+1,f
  4640  0E72  02A3               	subwf	___awmod@dividend+1,f
  4641  0E73                     l2752:	
  4642  0E73  3001               	movlw	1
  4643  0E74                     u2875:	
  4644  0E74  1003               	clrc
  4645  0E75  0CA1               	rrf	___awmod@divisor+1,f
  4646  0E76  0CA0               	rrf	___awmod@divisor,f
  4647  0E77  3EFF               	addlw	-1
  4648  0E78  1D03               	skipz
  4649  0E79  2E74               	goto	u2875
  4650  0E7A                     l2754:	
  4651  0E7A  3001               	movlw	1
  4652  0E7B  02A5               	subwf	___awmod@counter,f
  4653  0E7C  1D03               	btfss	3,2
  4654  0E7D  2E7F               	goto	u2881
  4655  0E7E  2E80               	goto	u2880
  4656  0E7F                     u2881:	
  4657  0E7F  2E63               	goto	l2748
  4658  0E80                     u2880:	
  4659  0E80                     l2756:	
  4660  0E80  0826               	movf	___awmod@sign,w
  4661  0E81  1903               	btfsc	3,2
  4662  0E82  2E84               	goto	u2891
  4663  0E83  2E85               	goto	u2890
  4664  0E84                     u2891:	
  4665  0E84  2E8A               	goto	l2760
  4666  0E85                     u2890:	
  4667  0E85                     l2758:	
  4668  0E85  09A2               	comf	___awmod@dividend,f
  4669  0E86  09A3               	comf	___awmod@dividend+1,f
  4670  0E87  0AA2               	incf	___awmod@dividend,f
  4671  0E88  1903               	skipnz
  4672  0E89  0AA3               	incf	___awmod@dividend+1,f
  4673  0E8A                     l2760:	
  4674  0E8A  0823               	movf	___awmod@dividend+1,w
  4675  0E8B  00A1               	movwf	?___awmod+1
  4676  0E8C  0822               	movf	___awmod@dividend,w
  4677  0E8D  00A0               	movwf	?___awmod
  4678  0E8E                     l606:	
  4679  0E8E  0008               	return
  4680  0E8F                     __end_of___awmod:	
  4681                           
  4682                           	psect	text16
  4683  0E8F                     __ptext16:	
  4684 ;; *************** function ___awdiv *****************
  4685 ;; Defined at:
  4686 ;;		line 5 in file "C:\Program Files (x86)\Microchip\xc8\v2.10\pic\sources\c90\common\awdiv.c"
  4687 ;; Parameters:    Size  Location     Type
  4688 ;;  divisor         2    7[BANK0 ] int 
  4689 ;;  dividend        2    9[BANK0 ] int 
  4690 ;; Auto vars:     Size  Location     Type
  4691 ;;  quotient        2   14[BANK0 ] int 
  4692 ;;  sign            1   13[BANK0 ] unsigned char 
  4693 ;;  counter         1   12[BANK0 ] unsigned char 
  4694 ;; Return value:  Size  Location     Type
  4695 ;;                  2    7[BANK0 ] int 
  4696 ;; Registers used:
  4697 ;;		wreg, status,2, status,0
  4698 ;; Tracked objects:
  4699 ;;		On entry : 0/0
  4700 ;;		On exit  : 0/0
  4701 ;;		Unchanged: 0/0
  4702 ;; Data sizes:     COMMON   BANK0   BANK1   BANK3   BANK2
  4703 ;;      Params:         0       4       0       0       0
  4704 ;;      Locals:         0       4       0       0       0
  4705 ;;      Temps:          0       1       0       0       0
  4706 ;;      Totals:         0       9       0       0       0
  4707 ;;Total ram usage:        9 bytes
  4708 ;; Hardware stack levels used:    1
  4709 ;; Hardware stack levels required when called:    2
  4710 ;; This function calls:
  4711 ;;		Nothing
  4712 ;; This function is called by:
  4713 ;;		_map
  4714 ;;		_GetDigits
  4715 ;;		_intToString
  4716 ;; This function uses a non-reentrant model
  4717 ;;
  4718                           
  4719                           
  4720                           ;psect for function ___awdiv
  4721  0E8F                     ___awdiv:	
  4722  0E8F                     l2682:	
  4723                           ;incstack = 0
  4724                           ; Regs used in ___awdiv: [wreg+status,2+status,0]
  4725                           
  4726  0E8F  1283               	bcf	3,5	;RP0=0, select bank0
  4727  0E90  1303               	bcf	3,6	;RP1=0, select bank0
  4728  0E91  01AD               	clrf	___awdiv@sign
  4729  0E92                     l2684:	
  4730  0E92  1FA8               	btfss	___awdiv@divisor+1,7
  4731  0E93  2E95               	goto	u2711
  4732  0E94  2E96               	goto	u2710
  4733  0E95                     u2711:	
  4734  0E95  2E9D               	goto	l2690
  4735  0E96                     u2710:	
  4736  0E96                     l2686:	
  4737  0E96  09A7               	comf	___awdiv@divisor,f
  4738  0E97  09A8               	comf	___awdiv@divisor+1,f
  4739  0E98  0AA7               	incf	___awdiv@divisor,f
  4740  0E99  1903               	skipnz
  4741  0E9A  0AA8               	incf	___awdiv@divisor+1,f
  4742  0E9B                     l2688:	
  4743  0E9B  01AD               	clrf	___awdiv@sign
  4744  0E9C  0AAD               	incf	___awdiv@sign,f
  4745  0E9D                     l2690:	
  4746  0E9D  1FAA               	btfss	___awdiv@dividend+1,7
  4747  0E9E  2EA0               	goto	u2721
  4748  0E9F  2EA1               	goto	u2720
  4749  0EA0                     u2721:	
  4750  0EA0  2EAA               	goto	l2696
  4751  0EA1                     u2720:	
  4752  0EA1                     l2692:	
  4753  0EA1  09A9               	comf	___awdiv@dividend,f
  4754  0EA2  09AA               	comf	___awdiv@dividend+1,f
  4755  0EA3  0AA9               	incf	___awdiv@dividend,f
  4756  0EA4  1903               	skipnz
  4757  0EA5  0AAA               	incf	___awdiv@dividend+1,f
  4758  0EA6                     l2694:	
  4759  0EA6  3001               	movlw	1
  4760  0EA7  00AB               	movwf	??___awdiv
  4761  0EA8  082B               	movf	??___awdiv,w
  4762  0EA9  06AD               	xorwf	___awdiv@sign,f
  4763  0EAA                     l2696:	
  4764  0EAA  01AE               	clrf	___awdiv@quotient
  4765  0EAB  01AF               	clrf	___awdiv@quotient+1
  4766  0EAC                     l2698:	
  4767  0EAC  0827               	movf	___awdiv@divisor,w
  4768  0EAD  0428               	iorwf	___awdiv@divisor+1,w
  4769  0EAE  1903               	btfsc	3,2
  4770  0EAF  2EB1               	goto	u2731
  4771  0EB0  2EB2               	goto	u2730
  4772  0EB1                     u2731:	
  4773  0EB1  2EE9               	goto	l2718
  4774  0EB2                     u2730:	
  4775  0EB2                     l2700:	
  4776  0EB2  01AC               	clrf	___awdiv@counter
  4777  0EB3  0AAC               	incf	___awdiv@counter,f
  4778  0EB4  2EC0               	goto	l2706
  4779  0EB5                     l2702:	
  4780  0EB5  3001               	movlw	1
  4781  0EB6                     u2745:	
  4782  0EB6  1003               	clrc
  4783  0EB7  0DA7               	rlf	___awdiv@divisor,f
  4784  0EB8  0DA8               	rlf	___awdiv@divisor+1,f
  4785  0EB9  3EFF               	addlw	-1
  4786  0EBA  1D03               	skipz
  4787  0EBB  2EB6               	goto	u2745
  4788  0EBC                     l2704:	
  4789  0EBC  3001               	movlw	1
  4790  0EBD  00AB               	movwf	??___awdiv
  4791  0EBE  082B               	movf	??___awdiv,w
  4792  0EBF  07AC               	addwf	___awdiv@counter,f
  4793  0EC0                     l2706:	
  4794  0EC0  1FA8               	btfss	___awdiv@divisor+1,7
  4795  0EC1  2EC3               	goto	u2751
  4796  0EC2  2EC4               	goto	u2750
  4797  0EC3                     u2751:	
  4798  0EC3  2EB5               	goto	l2702
  4799  0EC4                     u2750:	
  4800  0EC4                     l2708:	
  4801  0EC4  3001               	movlw	1
  4802  0EC5                     u2765:	
  4803  0EC5  1003               	clrc
  4804  0EC6  0DAE               	rlf	___awdiv@quotient,f
  4805  0EC7  0DAF               	rlf	___awdiv@quotient+1,f
  4806  0EC8  3EFF               	addlw	-1
  4807  0EC9  1D03               	skipz
  4808  0ECA  2EC5               	goto	u2765
  4809  0ECB  0828               	movf	___awdiv@divisor+1,w
  4810  0ECC  022A               	subwf	___awdiv@dividend+1,w
  4811  0ECD  1D03               	skipz
  4812  0ECE  2ED1               	goto	u2775
  4813  0ECF  0827               	movf	___awdiv@divisor,w
  4814  0ED0  0229               	subwf	___awdiv@dividend,w
  4815  0ED1                     u2775:	
  4816  0ED1  1C03               	skipc
  4817  0ED2  2ED4               	goto	u2771
  4818  0ED3  2ED5               	goto	u2770
  4819  0ED4                     u2771:	
  4820  0ED4  2EDC               	goto	l2714
  4821  0ED5                     u2770:	
  4822  0ED5                     l2710:	
  4823  0ED5  0827               	movf	___awdiv@divisor,w
  4824  0ED6  02A9               	subwf	___awdiv@dividend,f
  4825  0ED7  0828               	movf	___awdiv@divisor+1,w
  4826  0ED8  1C03               	skipc
  4827  0ED9  03AA               	decf	___awdiv@dividend+1,f
  4828  0EDA  02AA               	subwf	___awdiv@dividend+1,f
  4829  0EDB                     l2712:	
  4830  0EDB  142E               	bsf	___awdiv@quotient,0
  4831  0EDC                     l2714:	
  4832  0EDC  3001               	movlw	1
  4833  0EDD                     u2785:	
  4834  0EDD  1003               	clrc
  4835  0EDE  0CA8               	rrf	___awdiv@divisor+1,f
  4836  0EDF  0CA7               	rrf	___awdiv@divisor,f
  4837  0EE0  3EFF               	addlw	-1
  4838  0EE1  1D03               	skipz
  4839  0EE2  2EDD               	goto	u2785
  4840  0EE3                     l2716:	
  4841  0EE3  3001               	movlw	1
  4842  0EE4  02AC               	subwf	___awdiv@counter,f
  4843  0EE5  1D03               	btfss	3,2
  4844  0EE6  2EE8               	goto	u2791
  4845  0EE7  2EE9               	goto	u2790
  4846  0EE8                     u2791:	
  4847  0EE8  2EC4               	goto	l2708
  4848  0EE9                     u2790:	
  4849  0EE9                     l2718:	
  4850  0EE9  082D               	movf	___awdiv@sign,w
  4851  0EEA  1903               	btfsc	3,2
  4852  0EEB  2EED               	goto	u2801
  4853  0EEC  2EEE               	goto	u2800
  4854  0EED                     u2801:	
  4855  0EED  2EF3               	goto	l2722
  4856  0EEE                     u2800:	
  4857  0EEE                     l2720:	
  4858  0EEE  09AE               	comf	___awdiv@quotient,f
  4859  0EEF  09AF               	comf	___awdiv@quotient+1,f
  4860  0EF0  0AAE               	incf	___awdiv@quotient,f
  4861  0EF1  1903               	skipnz
  4862  0EF2  0AAF               	incf	___awdiv@quotient+1,f
  4863  0EF3                     l2722:	
  4864  0EF3  082F               	movf	___awdiv@quotient+1,w
  4865  0EF4  00A8               	movwf	?___awdiv+1
  4866  0EF5  082E               	movf	___awdiv@quotient,w
  4867  0EF6  00A7               	movwf	?___awdiv
  4868  0EF7                     l593:	
  4869  0EF7  0008               	return
  4870  0EF8                     __end_of___awdiv:	
  4871                           
  4872                           	psect	text17
  4873  0CA5                     __ptext17:	
  4874 ;; *************** function _ADC_Read *****************
  4875 ;; Defined at:
  4876 ;;		line 363 in file "main.c"
  4877 ;; Parameters:    Size  Location     Type
  4878 ;;  canale          1    wreg     unsigned char 
  4879 ;; Auto vars:     Size  Location     Type
  4880 ;;  canale          1    3[BANK0 ] unsigned char 
  4881 ;; Return value:  Size  Location     Type
  4882 ;;                  2    0[BANK0 ] int 
  4883 ;; Registers used:
  4884 ;;		wreg, status,2, status,0
  4885 ;; Tracked objects:
  4886 ;;		On entry : 0/0
  4887 ;;		On exit  : 0/0
  4888 ;;		Unchanged: 0/0
  4889 ;; Data sizes:     COMMON   BANK0   BANK1   BANK3   BANK2
  4890 ;;      Params:         0       2       0       0       0
  4891 ;;      Locals:         0       1       0       0       0
  4892 ;;      Temps:          0       1       0       0       0
  4893 ;;      Totals:         0       4       0       0       0
  4894 ;;Total ram usage:        4 bytes
  4895 ;; Hardware stack levels used:    1
  4896 ;; Hardware stack levels required when called:    2
  4897 ;; This function calls:
  4898 ;;		Nothing
  4899 ;; This function is called by:
  4900 ;;		_main
  4901 ;; This function uses a non-reentrant model
  4902 ;;
  4903                           
  4904                           
  4905                           ;psect for function _ADC_Read
  4906  0CA5                     _ADC_Read:	
  4907                           
  4908                           ;incstack = 0
  4909                           ; Regs used in _ADC_Read: [wreg+status,2+status,0]
  4910                           ;ADC_Read@canale stored from wreg
  4911  0CA5  1283               	bcf	3,5	;RP0=0, select bank0
  4912  0CA6  1303               	bcf	3,6	;RP1=0, select bank0
  4913  0CA7  00A3               	movwf	ADC_Read@canale
  4914  0CA8                     l2864:	
  4915                           
  4916                           ;main.c: 363: int ADC_Read(char canale);main.c: 364: {;main.c: 365:     ADCON0 = (1 << 0
      +                          ) | (canale << 3);
  4917  0CA8  0823               	movf	ADC_Read@canale,w
  4918  0CA9  00A2               	movwf	??_ADC_Read
  4919  0CAA  3002               	movlw	2
  4920  0CAB                     u2955:	
  4921  0CAB  1003               	clrc
  4922  0CAC  0DA2               	rlf	??_ADC_Read,f
  4923  0CAD  3EFF               	addlw	-1
  4924  0CAE  1D03               	skipz
  4925  0CAF  2CAB               	goto	u2955
  4926  0CB0  1003               	clrc
  4927  0CB1  0D22               	rlf	??_ADC_Read,w
  4928  0CB2  3801               	iorlw	1
  4929  0CB3  009F               	movwf	31	;volatile
  4930  0CB4                     l2866:	
  4931                           
  4932                           ;main.c: 366:     _delay((unsigned long)((2)*(32000000/4000000.0)));
  4933  0CB4  3004               	movlw	4
  4934  0CB5  1283               	bcf	3,5	;RP0=0, select bank0
  4935  0CB6  1303               	bcf	3,6	;RP1=0, select bank0
  4936  0CB7  00A2               	movwf	??_ADC_Read
  4937  0CB8                     u3337:	
  4938  0CB8  0BA2               	decfsz	??_ADC_Read,f
  4939  0CB9  2CB8               	goto	u3337
  4940  0CBA  0000               	nop
  4941  0CBB                     l2868:	
  4942                           
  4943                           ;main.c: 367:     GO_nDONE = 1;
  4944  0CBB  1283               	bcf	3,5	;RP0=0, select bank0
  4945  0CBC  1303               	bcf	3,6	;RP1=0, select bank0
  4946  0CBD  151F               	bsf	31,2	;volatile
  4947  0CBE                     l267:	
  4948                           ;main.c: 369:         ;
  4949                           
  4950                           
  4951                           ;main.c: 368:     while (GO_nDONE)
  4952  0CBE  191F               	btfsc	31,2	;volatile
  4953  0CBF  2CC1               	goto	u2961
  4954  0CC0  2CC2               	goto	u2960
  4955  0CC1                     u2961:	
  4956  0CC1  2CBE               	goto	l267
  4957  0CC2                     u2960:	
  4958  0CC2                     l2870:	
  4959                           
  4960                           ;main.c: 370:     return ADRESL + (ADRESH << 8);
  4961  0CC2  081E               	movf	30,w	;volatile
  4962  0CC3  00A1               	movwf	?_ADC_Read+1
  4963  0CC4  1683               	bsf	3,5	;RP0=1, select bank1
  4964  0CC5  1303               	bcf	3,6	;RP1=0, select bank1
  4965  0CC6  081E               	movf	30,w	;volatile
  4966  0CC7  1283               	bcf	3,5	;RP0=0, select bank0
  4967  0CC8  1303               	bcf	3,6	;RP1=0, select bank0
  4968  0CC9  00A0               	movwf	?_ADC_Read
  4969  0CCA                     l270:	
  4970  0CCA  0008               	return
  4971  0CCB                     __end_of_ADC_Read:	
  4972                           
  4973                           	psect	text18
  4974  0DDA                     __ptext18:	
  4975 ;; *************** function _ISR *****************
  4976 ;; Defined at:
  4977 ;;		line 564 in file "main.c"
  4978 ;; Parameters:    Size  Location     Type
  4979 ;;		None
  4980 ;; Auto vars:     Size  Location     Type
  4981 ;;		None
  4982 ;; Return value:  Size  Location     Type
  4983 ;;                  1    wreg      void 
  4984 ;; Registers used:
  4985 ;;		wreg, fsr0l, fsr0h, status,2, status,0, pclath, cstack
  4986 ;; Tracked objects:
  4987 ;;		On entry : 0/0
  4988 ;;		On exit  : 0/0
  4989 ;;		Unchanged: 0/0
  4990 ;; Data sizes:     COMMON   BANK0   BANK1   BANK3   BANK2
  4991 ;;      Params:         0       0       0       0       0
  4992 ;;      Locals:         0       0       0       0       0
  4993 ;;      Temps:          4       0       0       0       0
  4994 ;;      Totals:         4       0       0       0       0
  4995 ;;Total ram usage:        4 bytes
  4996 ;; Hardware stack levels used:    1
  4997 ;; Hardware stack levels required when called:    1
  4998 ;; This function calls:
  4999 ;;		_UART_Read
  5000 ;;		_conteggioVeicoli
  5001 ;; This function is called by:
  5002 ;;		Interrupt level 1
  5003 ;; This function uses a non-reentrant model
  5004 ;;
  5005                           
  5006                           
  5007                           ;psect for function _ISR
  5008  0DDA                     _ISR:	
  5009  0DDA                     i1l2424:	
  5010                           
  5011                           ;main.c: 567:     if (RCIF && readGateway.Bit == 0)
  5012  0DDA  1283               	bcf	3,5	;RP0=0, select bank0
  5013  0DDB  1303               	bcf	3,6	;RP1=0, select bank0
  5014  0DDC  1E8C               	btfss	12,5	;volatile
  5015  0DDD  2DDF               	goto	u238_21
  5016  0DDE  2DE0               	goto	u238_20
  5017  0DDF                     u238_21:	
  5018  0DDF  2DE9               	goto	i1l2432
  5019  0DE0                     u238_20:	
  5020  0DE0                     i1l2426:	
  5021  0DE0  1862               	btfsc	_readGateway,0
  5022  0DE1  2DE3               	goto	u239_21
  5023  0DE2  2DE4               	goto	u239_20
  5024  0DE3                     u239_21:	
  5025  0DE3  2DE9               	goto	i1l2432
  5026  0DE4                     u239_20:	
  5027  0DE4                     i1l2428:	
  5028                           
  5029                           ;main.c: 568:     {;main.c: 569:         readGateway.Bit = 1;
  5030  0DE4  1462               	bsf	_readGateway,0
  5031                           
  5032                           ;main.c: 570:         readGatewayDone.Bit = 0;
  5033  0DE5  1063               	bcf	_readGatewayDone,0
  5034                           
  5035                           ;main.c: 571:         readGatewayDone.Timeout = 0;
  5036  0DE6  10E3               	bcf	_readGatewayDone,1
  5037  0DE7                     i1l2430:	
  5038                           
  5039                           ;main.c: 572:         dataFromGatewayIndex = 0;
  5040  0DE7  01D9               	clrf	_dataFromGatewayIndex
  5041                           
  5042                           ;main.c: 573:         timerReadFromGateway = 0;
  5043  0DE8  01D8               	clrf	_timerReadFromGateway
  5044  0DE9                     i1l2432:	
  5045                           
  5046                           ;main.c: 575:     if (RCIF && readGateway.Bit == 1)
  5047  0DE9  1E8C               	btfss	12,5	;volatile
  5048  0DEA  2DEC               	goto	u240_21
  5049  0DEB  2DED               	goto	u240_20
  5050  0DEC                     u240_21:	
  5051  0DEC  2E04               	goto	i1l2442
  5052  0DED                     u240_20:	
  5053  0DED                     i1l2434:	
  5054  0DED  1C62               	btfss	_readGateway,0
  5055  0DEE  2DF0               	goto	u241_21
  5056  0DEF  2DF1               	goto	u241_20
  5057  0DF0                     u241_21:	
  5058  0DF0  2E04               	goto	i1l2442
  5059  0DF1                     u241_20:	
  5060  0DF1                     i1l2436:	
  5061                           
  5062                           ;main.c: 576:     {;main.c: 577:         dataFromGateway[dataFromGatewayIndex] = UART_Re
      +                          ad();
  5063  0DF1  120A  158A  241A  120A  158A  	fcall	_UART_Read
  5064  0DF6  00F6               	movwf	??_ISR
  5065  0DF7  1283               	bcf	3,5	;RP0=0, select bank0
  5066  0DF8  1303               	bcf	3,6	;RP1=0, select bank0
  5067  0DF9  0859               	movf	_dataFromGatewayIndex,w
  5068  0DFA  3EA0               	addlw	(low (_dataFromGateway| 0))& (0+255)
  5069  0DFB  0084               	movwf	4
  5070  0DFC  0876               	movf	??_ISR,w
  5071  0DFD  1383               	bcf	3,7	;select IRP bank1
  5072  0DFE  0080               	movwf	0
  5073  0DFF                     i1l2438:	
  5074                           
  5075                           ;main.c: 578:         dataFromGatewayIndex++;
  5076  0DFF  3001               	movlw	1
  5077  0E00  00F6               	movwf	??_ISR
  5078  0E01  0876               	movf	??_ISR,w
  5079  0E02  07D9               	addwf	_dataFromGatewayIndex,f
  5080  0E03                     i1l2440:	
  5081                           
  5082                           ;main.c: 579:         timerReadFromGateway = 0;
  5083  0E03  01D8               	clrf	_timerReadFromGateway
  5084  0E04                     i1l2442:	
  5085                           
  5086                           ;main.c: 584:     if (TMR0IF)
  5087  0E04  1D0B               	btfss	11,2	;volatile
  5088  0E05  2E07               	goto	u242_21
  5089  0E06  2E08               	goto	u242_20
  5090  0E07                     u242_21:	
  5091  0E07  2E12               	goto	i1l2450
  5092  0E08                     u242_20:	
  5093  0E08                     i1l2444:	
  5094                           
  5095                           ;main.c: 585:     {;main.c: 586:         TMR0IF = 0;
  5096  0E08  110B               	bcf	11,2	;volatile
  5097  0E09                     i1l2446:	
  5098                           
  5099                           ;main.c: 587:         conteggioVeicoli();
  5100  0E09  120A  118A  2586  120A  158A  	fcall	_conteggioVeicoli
  5101  0E0E                     i1l2448:	
  5102                           
  5103                           ;main.c: 588:         TMR0 = 6;
  5104  0E0E  3006               	movlw	6
  5105  0E0F  1283               	bcf	3,5	;RP0=0, select bank0
  5106  0E10  1303               	bcf	3,6	;RP1=0, select bank0
  5107  0E11  0081               	movwf	1	;volatile
  5108  0E12                     i1l2450:	
  5109                           
  5110                           ;main.c: 591:     if (TMR1IF)
  5111  0E12  1C0C               	btfss	12,0	;volatile
  5112  0E13  2E15               	goto	u243_21
  5113  0E14  2E16               	goto	u243_20
  5114  0E15                     u243_21:	
  5115  0E15  2E2B               	goto	i1l354
  5116  0E16                     u243_20:	
  5117  0E16                     i1l2452:	
  5118                           
  5119                           ;main.c: 592:     {;main.c: 593:         TMR1IF = 0;
  5120  0E16  100C               	bcf	12,0	;volatile
  5121  0E17                     i1l2454:	
  5122                           
  5123                           ;main.c: 594:         count_lux++;
  5124  0E17  3001               	movlw	1
  5125  0E18  00F6               	movwf	??_ISR
  5126  0E19  0876               	movf	??_ISR,w
  5127  0E1A  07F4               	addwf	_count_lux,f
  5128  0E1B                     i1l2456:	
  5129                           
  5130                           ;main.c: 596:         if (count_lux >= 20)
  5131  0E1B  3014               	movlw	20
  5132  0E1C  0274               	subwf	_count_lux,w
  5133  0E1D  1C03               	skipc
  5134  0E1E  2E20               	goto	u244_21
  5135  0E1F  2E21               	goto	u244_20
  5136  0E20                     u244_21:	
  5137  0E20  2E27               	goto	i1l2464
  5138  0E21                     u244_20:	
  5139  0E21                     i1l2458:	
  5140                           
  5141                           ;main.c: 597:         {;main.c: 598:             secondPassed.Bit = 1;
  5142  0E21  1461               	bsf	_secondPassed,0
  5143  0E22                     i1l2460:	
  5144                           
  5145                           ;main.c: 599:             count_lux = 0;
  5146  0E22  01F4               	clrf	_count_lux
  5147  0E23                     i1l2462:	
  5148                           
  5149                           ;main.c: 600:             timerReadFromGateway++;
  5150  0E23  3001               	movlw	1
  5151  0E24  00F6               	movwf	??_ISR
  5152  0E25  0876               	movf	??_ISR,w
  5153  0E26  07D8               	addwf	_timerReadFromGateway,f
  5154  0E27                     i1l2464:	
  5155                           
  5156                           ;main.c: 603:         TMR1H = 60;
  5157  0E27  303C               	movlw	60
  5158  0E28  008F               	movwf	15	;volatile
  5159  0E29                     i1l2466:	
  5160                           
  5161                           ;main.c: 604:         TMR1L = 176;
  5162  0E29  30B0               	movlw	176
  5163  0E2A  008E               	movwf	14	;volatile
  5164  0E2B                     i1l354:	
  5165  0E2B  0879               	movf	??_ISR+3,w
  5166  0E2C  008A               	movwf	10
  5167  0E2D  0878               	movf	??_ISR+2,w
  5168  0E2E  0084               	movwf	4
  5169  0E2F  0E77               	swapf	(??_ISR+1)^(0+4294967168),w
  5170  0E30  0083               	movwf	3
  5171  0E31  0EFE               	swapf	btemp,f
  5172  0E32  0E7E               	swapf	btemp,w
  5173  0E33  0009               	retfie
  5174  0E34                     __end_of_ISR:	
  5175                           
  5176                           	psect	intentry
  5177  0004                     __pintentry:	
  5178                           ;incstack = 0
  5179                           ; Regs used in _ISR: [wreg-fsr0h+status,2+status,0+pclath+cstack]
  5180                           
  5181  0004                     interrupt_function:	
  5182  007E                     saved_w	set	btemp
  5183  0004  00FE               	movwf	btemp
  5184  0005  0E03               	swapf	3,w
  5185  0006  00F7               	movwf	??_ISR+1
  5186  0007  0804               	movf	4,w
  5187  0008  00F8               	movwf	??_ISR+2
  5188  0009  080A               	movf	10,w
  5189  000A  00F9               	movwf	??_ISR+3
  5190  000B  120A  158A  2DDA   	ljmp	_ISR
  5191                           
  5192                           	psect	text19
  5193  0586                     __ptext19:	
  5194 ;; *************** function _conteggioVeicoli *****************
  5195 ;; Defined at:
  5196 ;;		line 455 in file "main.c"
  5197 ;; Parameters:    Size  Location     Type
  5198 ;;		None
  5199 ;; Auto vars:     Size  Location     Type
  5200 ;;		None
  5201 ;; Return value:  Size  Location     Type
  5202 ;;                  1    wreg      void 
  5203 ;; Registers used:
  5204 ;;		wreg, status,2, status,0
  5205 ;; Tracked objects:
  5206 ;;		On entry : 0/0
  5207 ;;		On exit  : 0/0
  5208 ;;		Unchanged: 0/0
  5209 ;; Data sizes:     COMMON   BANK0   BANK1   BANK3   BANK2
  5210 ;;      Params:         0       0       0       0       0
  5211 ;;      Locals:         0       0       0       0       0
  5212 ;;      Temps:          1       0       0       0       0
  5213 ;;      Totals:         1       0       0       0       0
  5214 ;;Total ram usage:        1 bytes
  5215 ;; Hardware stack levels used:    1
  5216 ;; This function calls:
  5217 ;;		Nothing
  5218 ;; This function is called by:
  5219 ;;		_ISR
  5220 ;; This function uses a non-reentrant model
  5221 ;;
  5222                           
  5223                           
  5224                           ;psect for function _conteggioVeicoli
  5225  0586                     _conteggioVeicoli:	
  5226  0586                     i1l2118:	
  5227                           ;incstack = 0
  5228                           ; Regs used in _conteggioVeicoli: [wreg+status,2+status,0]
  5229                           
  5230                           
  5231                           ;main.c: 458:     if (!PORTBbits.RB3)
  5232  0586  1283               	bcf	3,5	;RP0=0, select bank0
  5233  0587  1303               	bcf	3,6	;RP1=0, select bank0
  5234  0588  1986               	btfsc	6,3	;volatile
  5235  0589  2D8B               	goto	u183_21
  5236  058A  2D8C               	goto	u183_20
  5237  058B                     u183_21:	
  5238  058B  2D93               	goto	i1l308
  5239  058C                     u183_20:	
  5240  058C                     i1l2120:	
  5241                           
  5242                           ;main.c: 459:     {;main.c: 460:         count++;
  5243  058C  3001               	movlw	1
  5244  058D  07F0               	addwf	_count,f
  5245  058E  1803               	skipnc
  5246  058F  0AF1               	incf	_count+1,f
  5247  0590  3000               	movlw	0
  5248  0591  07F1               	addwf	_count+1,f
  5249                           
  5250                           ;main.c: 461:     }
  5251  0592  2DC2               	goto	i1l2136
  5252  0593                     i1l308:	
  5253                           ;main.c: 462:     else if (PORTBbits.RB3)
  5254                           
  5255  0593  1D86               	btfss	6,3	;volatile
  5256  0594  2D96               	goto	u184_21
  5257  0595  2D97               	goto	u184_20
  5258  0596                     u184_21:	
  5259  0596  2DC2               	goto	i1l2136
  5260  0597                     u184_20:	
  5261  0597                     i1l2122:	
  5262                           
  5263                           ;main.c: 463:     {;main.c: 464:         if (count >= 500)
  5264  0597  3001               	movlw	1
  5265  0598  0271               	subwf	_count+1,w
  5266  0599  30F4               	movlw	244
  5267  059A  1903               	skipnz
  5268  059B  0270               	subwf	_count,w
  5269  059C  1C03               	skipc
  5270  059D  2D9F               	goto	u185_21
  5271  059E  2DA0               	goto	u185_20
  5272  059F                     u185_21:	
  5273  059F  2DA4               	goto	i1l2126
  5274  05A0                     u185_20:	
  5275  05A0                     i1l2124:	
  5276                           
  5277                           ;main.c: 465:         {;main.c: 466:             motorcycle[0]++;
  5278  05A0  3001               	movlw	1
  5279  05A1  00F5               	movwf	??_conteggioVeicoli
  5280  05A2  0875               	movf	??_conteggioVeicoli,w
  5281  05A3  07D1               	addwf	_motorcycle,f
  5282  05A4                     i1l2126:	
  5283                           
  5284                           ;main.c: 468:         if (count >= 1500)
  5285  05A4  3005               	movlw	5
  5286  05A5  0271               	subwf	_count+1,w
  5287  05A6  30DC               	movlw	220
  5288  05A7  1903               	skipnz
  5289  05A8  0270               	subwf	_count,w
  5290  05A9  1C03               	skipc
  5291  05AA  2DAC               	goto	u186_21
  5292  05AB  2DAD               	goto	u186_20
  5293  05AC                     u186_21:	
  5294  05AC  2DB1               	goto	i1l2130
  5295  05AD                     u186_20:	
  5296  05AD                     i1l2128:	
  5297                           
  5298                           ;main.c: 469:         {;main.c: 470:             car[0]++;
  5299  05AD  3001               	movlw	1
  5300  05AE  00F5               	movwf	??_conteggioVeicoli
  5301  05AF  0875               	movf	??_conteggioVeicoli,w
  5302  05B0  07CD               	addwf	_car,f
  5303  05B1                     i1l2130:	
  5304                           
  5305                           ;main.c: 472:         if (count >= 3000)
  5306  05B1  300B               	movlw	11
  5307  05B2  0271               	subwf	_count+1,w
  5308  05B3  30B8               	movlw	184
  5309  05B4  1903               	skipnz
  5310  05B5  0270               	subwf	_count,w
  5311  05B6  1C03               	skipc
  5312  05B7  2DB9               	goto	u187_21
  5313  05B8  2DBA               	goto	u187_20
  5314  05B9                     u187_21:	
  5315  05B9  2DC0               	goto	i1l2134
  5316  05BA                     u187_20:	
  5317  05BA                     i1l2132:	
  5318                           
  5319                           ;main.c: 473:         {;main.c: 474:             truck[0]++;
  5320  05BA  3001               	movlw	1
  5321  05BB  00F5               	movwf	??_conteggioVeicoli
  5322  05BC  0875               	movf	??_conteggioVeicoli,w
  5323  05BD  1683               	bsf	3,5	;RP0=1, select bank1
  5324  05BE  1303               	bcf	3,6	;RP1=0, select bank1
  5325  05BF  07AF               	addwf	_truck^(0+128),f
  5326  05C0                     i1l2134:	
  5327                           
  5328                           ;main.c: 476:         count = 0;
  5329  05C0  01F0               	clrf	_count
  5330  05C1  01F1               	clrf	_count+1
  5331  05C2                     i1l2136:	
  5332                           
  5333                           ;main.c: 479:     if (!PORTBbits.RB4)
  5334  05C2  1283               	bcf	3,5	;RP0=0, select bank0
  5335  05C3  1A06               	btfsc	6,4	;volatile
  5336  05C4  2DC6               	goto	u188_21
  5337  05C5  2DC7               	goto	u188_20
  5338  05C6                     u188_21:	
  5339  05C6  2DCE               	goto	i1l314
  5340  05C7                     u188_20:	
  5341  05C7                     i1l2138:	
  5342                           
  5343                           ;main.c: 480:     {;main.c: 481:         count++;
  5344  05C7  3001               	movlw	1
  5345  05C8  07F0               	addwf	_count,f
  5346  05C9  1803               	skipnc
  5347  05CA  0AF1               	incf	_count+1,f
  5348  05CB  3000               	movlw	0
  5349  05CC  07F1               	addwf	_count+1,f
  5350                           
  5351                           ;main.c: 482:     }
  5352  05CD  2DFD               	goto	i1l2154
  5353  05CE                     i1l314:	
  5354                           ;main.c: 483:     else if (PORTBbits.RB4)
  5355                           
  5356  05CE  1E06               	btfss	6,4	;volatile
  5357  05CF  2DD1               	goto	u189_21
  5358  05D0  2DD2               	goto	u189_20
  5359  05D1                     u189_21:	
  5360  05D1  2DFD               	goto	i1l2154
  5361  05D2                     u189_20:	
  5362  05D2                     i1l2140:	
  5363                           
  5364                           ;main.c: 484:     {;main.c: 485:         if (count >= 500)
  5365  05D2  3001               	movlw	1
  5366  05D3  0271               	subwf	_count+1,w
  5367  05D4  30F4               	movlw	244
  5368  05D5  1903               	skipnz
  5369  05D6  0270               	subwf	_count,w
  5370  05D7  1C03               	skipc
  5371  05D8  2DDA               	goto	u190_21
  5372  05D9  2DDB               	goto	u190_20
  5373  05DA                     u190_21:	
  5374  05DA  2DDF               	goto	i1l2144
  5375  05DB                     u190_20:	
  5376  05DB                     i1l2142:	
  5377                           
  5378                           ;main.c: 486:         {;main.c: 487:             motorcycle[1]++;
  5379  05DB  3001               	movlw	1
  5380  05DC  00F5               	movwf	??_conteggioVeicoli
  5381  05DD  0875               	movf	??_conteggioVeicoli,w
  5382  05DE  07D2               	addwf	_motorcycle+1,f
  5383  05DF                     i1l2144:	
  5384                           
  5385                           ;main.c: 489:         if (count >= 1500)
  5386  05DF  3005               	movlw	5
  5387  05E0  0271               	subwf	_count+1,w
  5388  05E1  30DC               	movlw	220
  5389  05E2  1903               	skipnz
  5390  05E3  0270               	subwf	_count,w
  5391  05E4  1C03               	skipc
  5392  05E5  2DE7               	goto	u191_21
  5393  05E6  2DE8               	goto	u191_20
  5394  05E7                     u191_21:	
  5395  05E7  2DEC               	goto	i1l2148
  5396  05E8                     u191_20:	
  5397  05E8                     i1l2146:	
  5398                           
  5399                           ;main.c: 490:         {;main.c: 491:             car[1]++;
  5400  05E8  3001               	movlw	1
  5401  05E9  00F5               	movwf	??_conteggioVeicoli
  5402  05EA  0875               	movf	??_conteggioVeicoli,w
  5403  05EB  07CE               	addwf	_car+1,f
  5404  05EC                     i1l2148:	
  5405                           
  5406                           ;main.c: 493:         if (count >= 3000)
  5407  05EC  300B               	movlw	11
  5408  05ED  0271               	subwf	_count+1,w
  5409  05EE  30B8               	movlw	184
  5410  05EF  1903               	skipnz
  5411  05F0  0270               	subwf	_count,w
  5412  05F1  1C03               	skipc
  5413  05F2  2DF4               	goto	u192_21
  5414  05F3  2DF5               	goto	u192_20
  5415  05F4                     u192_21:	
  5416  05F4  2DFB               	goto	i1l2152
  5417  05F5                     u192_20:	
  5418  05F5                     i1l2150:	
  5419                           
  5420                           ;main.c: 494:         {;main.c: 495:             truck[1]++;
  5421  05F5  3001               	movlw	1
  5422  05F6  00F5               	movwf	??_conteggioVeicoli
  5423  05F7  0875               	movf	??_conteggioVeicoli,w
  5424  05F8  1683               	bsf	3,5	;RP0=1, select bank1
  5425  05F9  1303               	bcf	3,6	;RP1=0, select bank1
  5426  05FA  07B0               	addwf	(_truck^(0+128)+1),f
  5427  05FB                     i1l2152:	
  5428                           
  5429                           ;main.c: 497:         count = 0;
  5430  05FB  01F0               	clrf	_count
  5431  05FC  01F1               	clrf	_count+1
  5432  05FD                     i1l2154:	
  5433                           
  5434                           ;main.c: 500:     if (!PORTBbits.RB5)
  5435  05FD  1283               	bcf	3,5	;RP0=0, select bank0
  5436  05FE  1A86               	btfsc	6,5	;volatile
  5437  05FF  2E01               	goto	u193_21
  5438  0600  2E02               	goto	u193_20
  5439  0601                     u193_21:	
  5440  0601  2E09               	goto	i1l320
  5441  0602                     u193_20:	
  5442  0602                     i1l2156:	
  5443                           
  5444                           ;main.c: 501:     {;main.c: 502:         count++;
  5445  0602  3001               	movlw	1
  5446  0603  07F0               	addwf	_count,f
  5447  0604  1803               	skipnc
  5448  0605  0AF1               	incf	_count+1,f
  5449  0606  3000               	movlw	0
  5450  0607  07F1               	addwf	_count+1,f
  5451                           
  5452                           ;main.c: 503:     }
  5453  0608  2E38               	goto	i1l2172
  5454  0609                     i1l320:	
  5455                           ;main.c: 504:     else if (PORTBbits.RB5)
  5456                           
  5457  0609  1E86               	btfss	6,5	;volatile
  5458  060A  2E0C               	goto	u194_21
  5459  060B  2E0D               	goto	u194_20
  5460  060C                     u194_21:	
  5461  060C  2E38               	goto	i1l2172
  5462  060D                     u194_20:	
  5463  060D                     i1l2158:	
  5464                           
  5465                           ;main.c: 505:     {;main.c: 506:         if (count >= 500)
  5466  060D  3001               	movlw	1
  5467  060E  0271               	subwf	_count+1,w
  5468  060F  30F4               	movlw	244
  5469  0610  1903               	skipnz
  5470  0611  0270               	subwf	_count,w
  5471  0612  1C03               	skipc
  5472  0613  2E15               	goto	u195_21
  5473  0614  2E16               	goto	u195_20
  5474  0615                     u195_21:	
  5475  0615  2E1A               	goto	i1l2162
  5476  0616                     u195_20:	
  5477  0616                     i1l2160:	
  5478                           
  5479                           ;main.c: 507:         {;main.c: 508:             motorcycle[2]++;
  5480  0616  3001               	movlw	1
  5481  0617  00F5               	movwf	??_conteggioVeicoli
  5482  0618  0875               	movf	??_conteggioVeicoli,w
  5483  0619  07D3               	addwf	_motorcycle+2,f
  5484  061A                     i1l2162:	
  5485                           
  5486                           ;main.c: 510:         if (count >= 1500)
  5487  061A  3005               	movlw	5
  5488  061B  0271               	subwf	_count+1,w
  5489  061C  30DC               	movlw	220
  5490  061D  1903               	skipnz
  5491  061E  0270               	subwf	_count,w
  5492  061F  1C03               	skipc
  5493  0620  2E22               	goto	u196_21
  5494  0621  2E23               	goto	u196_20
  5495  0622                     u196_21:	
  5496  0622  2E27               	goto	i1l2166
  5497  0623                     u196_20:	
  5498  0623                     i1l2164:	
  5499                           
  5500                           ;main.c: 511:         {;main.c: 512:             car[2]++;
  5501  0623  3001               	movlw	1
  5502  0624  00F5               	movwf	??_conteggioVeicoli
  5503  0625  0875               	movf	??_conteggioVeicoli,w
  5504  0626  07CF               	addwf	_car+2,f
  5505  0627                     i1l2166:	
  5506                           
  5507                           ;main.c: 514:         if (count >= 3000)
  5508  0627  300B               	movlw	11
  5509  0628  0271               	subwf	_count+1,w
  5510  0629  30B8               	movlw	184
  5511  062A  1903               	skipnz
  5512  062B  0270               	subwf	_count,w
  5513  062C  1C03               	skipc
  5514  062D  2E2F               	goto	u197_21
  5515  062E  2E30               	goto	u197_20
  5516  062F                     u197_21:	
  5517  062F  2E36               	goto	i1l2170
  5518  0630                     u197_20:	
  5519  0630                     i1l2168:	
  5520                           
  5521                           ;main.c: 515:         {;main.c: 516:             truck[2]++;
  5522  0630  3001               	movlw	1
  5523  0631  00F5               	movwf	??_conteggioVeicoli
  5524  0632  0875               	movf	??_conteggioVeicoli,w
  5525  0633  1683               	bsf	3,5	;RP0=1, select bank1
  5526  0634  1303               	bcf	3,6	;RP1=0, select bank1
  5527  0635  07B1               	addwf	(_truck^(0+128)+2),f
  5528  0636                     i1l2170:	
  5529                           
  5530                           ;main.c: 518:         count = 0;
  5531  0636  01F0               	clrf	_count
  5532  0637  01F1               	clrf	_count+1
  5533  0638                     i1l2172:	
  5534                           
  5535                           ;main.c: 521:     if (!PORTAbits.RA5)
  5536  0638  1283               	bcf	3,5	;RP0=0, select bank0
  5537  0639  1A85               	btfsc	5,5	;volatile
  5538  063A  2E3C               	goto	u198_21
  5539  063B  2E3D               	goto	u198_20
  5540  063C                     u198_21:	
  5541  063C  2E44               	goto	i1l326
  5542  063D                     u198_20:	
  5543  063D                     i1l2174:	
  5544                           
  5545                           ;main.c: 522:     {;main.c: 523:         count++;
  5546  063D  3001               	movlw	1
  5547  063E  07F0               	addwf	_count,f
  5548  063F  1803               	skipnc
  5549  0640  0AF1               	incf	_count+1,f
  5550  0641  3000               	movlw	0
  5551  0642  07F1               	addwf	_count+1,f
  5552                           
  5553                           ;main.c: 524:     }
  5554  0643  2E73               	goto	i1l332
  5555  0644                     i1l326:	
  5556                           ;main.c: 525:     else if (PORTAbits.RA5)
  5557                           
  5558  0644  1E85               	btfss	5,5	;volatile
  5559  0645  2E47               	goto	u199_21
  5560  0646  2E48               	goto	u199_20
  5561  0647                     u199_21:	
  5562  0647  2E73               	goto	i1l332
  5563  0648                     u199_20:	
  5564  0648                     i1l2176:	
  5565                           
  5566                           ;main.c: 526:     {;main.c: 527:         if (count >= 500)
  5567  0648  3001               	movlw	1
  5568  0649  0271               	subwf	_count+1,w
  5569  064A  30F4               	movlw	244
  5570  064B  1903               	skipnz
  5571  064C  0270               	subwf	_count,w
  5572  064D  1C03               	skipc
  5573  064E  2E50               	goto	u200_21
  5574  064F  2E51               	goto	u200_20
  5575  0650                     u200_21:	
  5576  0650  2E55               	goto	i1l2180
  5577  0651                     u200_20:	
  5578  0651                     i1l2178:	
  5579                           
  5580                           ;main.c: 528:         {;main.c: 529:             motorcycle[3]++;
  5581  0651  3001               	movlw	1
  5582  0652  00F5               	movwf	??_conteggioVeicoli
  5583  0653  0875               	movf	??_conteggioVeicoli,w
  5584  0654  07D4               	addwf	_motorcycle+3,f
  5585  0655                     i1l2180:	
  5586                           
  5587                           ;main.c: 531:         if (count >= 1500)
  5588  0655  3005               	movlw	5
  5589  0656  0271               	subwf	_count+1,w
  5590  0657  30DC               	movlw	220
  5591  0658  1903               	skipnz
  5592  0659  0270               	subwf	_count,w
  5593  065A  1C03               	skipc
  5594  065B  2E5D               	goto	u201_21
  5595  065C  2E5E               	goto	u201_20
  5596  065D                     u201_21:	
  5597  065D  2E62               	goto	i1l2184
  5598  065E                     u201_20:	
  5599  065E                     i1l2182:	
  5600                           
  5601                           ;main.c: 532:         {;main.c: 533:             car[3]++;
  5602  065E  3001               	movlw	1
  5603  065F  00F5               	movwf	??_conteggioVeicoli
  5604  0660  0875               	movf	??_conteggioVeicoli,w
  5605  0661  07D0               	addwf	_car+3,f
  5606  0662                     i1l2184:	
  5607                           
  5608                           ;main.c: 535:         if (count >= 3000)
  5609  0662  300B               	movlw	11
  5610  0663  0271               	subwf	_count+1,w
  5611  0664  30B8               	movlw	184
  5612  0665  1903               	skipnz
  5613  0666  0270               	subwf	_count,w
  5614  0667  1C03               	skipc
  5615  0668  2E6A               	goto	u202_21
  5616  0669  2E6B               	goto	u202_20
  5617  066A                     u202_21:	
  5618  066A  2E71               	goto	i1l2188
  5619  066B                     u202_20:	
  5620  066B                     i1l2186:	
  5621                           
  5622                           ;main.c: 536:         {;main.c: 537:             truck[3]++;
  5623  066B  3001               	movlw	1
  5624  066C  00F5               	movwf	??_conteggioVeicoli
  5625  066D  0875               	movf	??_conteggioVeicoli,w
  5626  066E  1683               	bsf	3,5	;RP0=1, select bank1
  5627  066F  1303               	bcf	3,6	;RP1=0, select bank1
  5628  0670  07B2               	addwf	(_truck^(0+128)+3),f
  5629  0671                     i1l2188:	
  5630                           
  5631                           ;main.c: 539:         count = 0;
  5632  0671  01F0               	clrf	_count
  5633  0672  01F1               	clrf	_count+1
  5634  0673                     i1l332:	
  5635  0673  0008               	return
  5636  0674                     __end_of_conteggioVeicoli:	
  5637                           
  5638                           	psect	text20
  5639  0C1A                     __ptext20:	
  5640 ;; *************** function _UART_Read *****************
  5641 ;; Defined at:
  5642 ;;		line 402 in file "main.c"
  5643 ;; Parameters:    Size  Location     Type
  5644 ;;		None
  5645 ;; Auto vars:     Size  Location     Type
  5646 ;;		None
  5647 ;; Return value:  Size  Location     Type
  5648 ;;                  1    wreg      unsigned char 
  5649 ;; Registers used:
  5650 ;;		wreg
  5651 ;; Tracked objects:
  5652 ;;		On entry : 0/0
  5653 ;;		On exit  : 0/0
  5654 ;;		Unchanged: 0/0
  5655 ;; Data sizes:     COMMON   BANK0   BANK1   BANK3   BANK2
  5656 ;;      Params:         0       0       0       0       0
  5657 ;;      Locals:         0       0       0       0       0
  5658 ;;      Temps:          0       0       0       0       0
  5659 ;;      Totals:         0       0       0       0       0
  5660 ;;Total ram usage:        0 bytes
  5661 ;; Hardware stack levels used:    1
  5662 ;; This function calls:
  5663 ;;		Nothing
  5664 ;; This function is called by:
  5665 ;;		_ISR
  5666 ;; This function uses a non-reentrant model
  5667 ;;
  5668                           
  5669                           
  5670                           ;psect for function _UART_Read
  5671  0C1A                     _UART_Read:	
  5672  0C1A                     i1l2112:	
  5673                           ;incstack = 0
  5674                           ; Regs used in _UART_Read: [wreg]
  5675                           
  5676  0C1A                     i1l288:	
  5677                           ;main.c: 405:         ;
  5678                           
  5679                           
  5680                           ;main.c: 404:     while (!RCIF)
  5681  0C1A  1283               	bcf	3,5	;RP0=0, select bank0
  5682  0C1B  1303               	bcf	3,6	;RP1=0, select bank0
  5683  0C1C  1E8C               	btfss	12,5	;volatile
  5684  0C1D  2C1F               	goto	u182_21
  5685  0C1E  2C20               	goto	u182_20
  5686  0C1F                     u182_21:	
  5687  0C1F  2C1A               	goto	i1l288
  5688  0C20                     u182_20:	
  5689  0C20                     i1l290:	
  5690                           
  5691                           ;main.c: 406:     RCIF = 0;
  5692  0C20  128C               	bcf	12,5	;volatile
  5693  0C21                     i1l2114:	
  5694                           
  5695                           ;main.c: 407:     return RCREG;
  5696  0C21  081A               	movf	26,w	;volatile
  5697  0C22                     i1l291:	
  5698  0C22  0008               	return
  5699  0C23                     __end_of_UART_Read:	
  5700  007E                     btemp	set	126	;btemp
  5701  007E                     wtemp0	set	126


Data Sizes:
    Strings     0
    Constant    11
    Data        32
    BSS         243
    Persistent  0
    Stack       0

Auto Spaces:
    Space          Size  Autos    Used
    COMMON           14      5      10
    BANK0            80     45      68
    BANK1            80      0      79
    BANK3            96      0      96
    BANK2            96     23      95

Pointer List with Targets:

    sendByte@txByte	PTR unsigned char  size(1) Largest target is 5
		 -> BuildByte@txByte(BANK0[5]), 

    UART_Write_Text@text	PTR unsigned char  size(1) Largest target is 5
		 -> BuildByte@txByte(BANK0[5]), 

    Semafori	PTR struct .[16] size(2) Largest target is 12
		 -> s15(BANK2[12]), s14(BANK2[12]), s13(BANK2[12]), s12(BANK2[12]), 
		 -> s11(BANK2[12]), s10(BANK2[12]), s9(BANK3[12]), s8(BANK3[12]), 
		 -> s7(BANK3[12]), s6(BANK3[12]), s5(BANK3[12]), s4(BANK3[12]), 
		 -> s3(BANK3[12]), s2(BANK3[12]), s1(BANK1[12]), s0(BANK1[12]), 

    sp__BuildByte	PTR unsigned char  size(1) Largest target is 5
		 -> BuildByte@txByte(BANK0[5]), 


Critical Paths under _main in COMMON

    None.

Critical Paths under _ISR in COMMON

    _ISR->_conteggioVeicoli

Critical Paths under _main in BANK0

    _main->_sendByte
    _sendByte->_BuildByte
    _UART_Write_Text->_UART_TxChar
    _map->___awdiv
    _UART_Init->___aldiv
    _GetDigits->___awdiv
    ___awdiv->___awmod

Critical Paths under _ISR in BANK0

    None.

Critical Paths under _main in BANK1

    None.

Critical Paths under _ISR in BANK1

    None.

Critical Paths under _main in BANK3

    None.

Critical Paths under _ISR in BANK3

    None.

Critical Paths under _main in BANK2

    None.

Critical Paths under _ISR in BANK2

    None.

Call Graph Tables:

 ---------------------------------------------------------------------------------
 (Depth) Function   	        Calls       Base Space   Used Autos Params    Refs
 ---------------------------------------------------------------------------------
 (0) _main                                                55    55      0   17483
                                             29 BANK0     16    16      0
                                              0 BANK2     23    23      0
                           _ADC_Read
                          _GetDigits
                            _GetTime
                   _SetDefaultTimers
                         _SetDisplay
                          _UART_Init
                            ___awmod
                             ___bmul
                             ___wmul
                           _init_ADC
                                _map
                           _sendByte
 ---------------------------------------------------------------------------------
 (1) _sendByte                                             9     7      2    2616
                                             20 BANK0      9     7      2
                          _BuildByte
                    _UART_Write_Text
 ---------------------------------------------------------------------------------
 (2) _UART_Write_Text                                      4     4      0     197
                                              1 BANK0      4     4      0
                        _UART_TxChar
 ---------------------------------------------------------------------------------
 (3) _UART_TxChar                                          1     1      0      31
                                              0 BANK0      1     1      0
 ---------------------------------------------------------------------------------
 (2) _BuildByte                                           20    18      2    1141
                                              0 BANK0     20    18      2
 ---------------------------------------------------------------------------------
 (1) _map                                                 10     0     10    4658
                                             16 BANK0     10     0     10
                           _ADC_Read (ARG)
                            ___awdiv
                             ___wmul
 ---------------------------------------------------------------------------------
 (2) ___wmul                                               6     2      4    1926
                                              0 BANK0      6     2      4
 ---------------------------------------------------------------------------------
 (1) _init_ADC                                             1     1      0       0
                                              0 BANK0      1     1      0
 ---------------------------------------------------------------------------------
 (1) ___bmul                                               4     3      1     171
                                              0 BANK0      4     3      1
 ---------------------------------------------------------------------------------
 (1) _UART_Init                                            6     4      2     746
                                             15 BANK0      6     4      2
                            ___aldiv
 ---------------------------------------------------------------------------------
 (2) ___aldiv                                             15     7      8     625
                                              0 BANK0     15     7      8
 ---------------------------------------------------------------------------------
 (1) _SetDisplay                                           4     1      3     934
                                              0 BANK0      4     1      3
 ---------------------------------------------------------------------------------
 (1) _SetDefaultTimers                                    16    10      6     716
                                              0 BANK0     16    10      6
 ---------------------------------------------------------------------------------
 (1) _GetTime                                              7     5      2     322
                                              0 BANK0      7     5      2
 ---------------------------------------------------------------------------------
 (1) _GetDigits                                            7     5      2    2653
                                             16 BANK0      7     5      2
                            ___awdiv
                            ___awmod
 ---------------------------------------------------------------------------------
 (1) ___awmod                                              7     3      4    1333
                                              0 BANK0      7     3      4
 ---------------------------------------------------------------------------------
 (2) ___awdiv                                              9     5      4    1165
                                              7 BANK0      9     5      4
                            ___awmod (ARG)
                             ___wmul (ARG)
 ---------------------------------------------------------------------------------
 (1) _ADC_Read                                             4     2      2      31
                                              0 BANK0      4     2      2
 ---------------------------------------------------------------------------------
 Estimated maximum stack depth 3
 ---------------------------------------------------------------------------------
 (Depth) Function   	        Calls       Base Space   Used Autos Params    Refs
 ---------------------------------------------------------------------------------
 (4) _ISR                                                  4     4      0       0
                                              1 COMMON     4     4      0
                          _UART_Read
                   _conteggioVeicoli
 ---------------------------------------------------------------------------------
 (5) _conteggioVeicoli                                     1     1      0       0
                                              0 COMMON     1     1      0
 ---------------------------------------------------------------------------------
 (5) _UART_Read                                            0     0      0       0
 ---------------------------------------------------------------------------------
 Estimated maximum stack depth 5
 ---------------------------------------------------------------------------------

 Call Graph Graphs:

 _main (ROOT)
   _ADC_Read
   _GetDigits
     ___awdiv
       ___awmod (ARG)
       ___wmul (ARG)
     ___awmod
   _GetTime
   _SetDefaultTimers
   _SetDisplay
   _UART_Init
     ___aldiv
   ___awmod
   ___bmul
   ___wmul
   _init_ADC
   _map
     _ADC_Read (ARG)
     ___awdiv (ARG)
       ___awmod (ARG)
       ___wmul (ARG)
     ___wmul (ARG)
   _sendByte
     _BuildByte
     _UART_Write_Text
       _UART_TxChar

 _ISR (ROOT)
   _UART_Read
   _conteggioVeicoli

 Address spaces:
Name               Size   Autos  Total    Cost      Usage
BANK3               60      0      60       9      100.0%
BITBANK3            60      0       0       8        0.0%
SFR3                 0      0       0       4        0.0%
BITSFR3              0      0       0       4        0.0%
BANK2               60     17      5F      11       99.0%
BITBANK2            60      0       0      10        0.0%
SFR2                 0      0       0       5        0.0%
BITSFR2              0      0       0       5        0.0%
BANK1               50      0      4F       7       98.8%
BITBANK1            50      0       0       6        0.0%
SFR1                 0      0       0       2        0.0%
BITSFR1              0      0       0       2        0.0%
BANK0               50     2D      44       5       85.0%
BITBANK0            50      0       0       4        0.0%
SFR0                 0      0       0       1        0.0%
BITSFR0              0      0       0       1        0.0%
COMMON               E      5       A       1       71.4%
BITCOMMON            E      0       0       0        0.0%
CODE                 0      0       0       0        0.0%
DATA                 0      0     15C      12        0.0%
ABS                  0      0     15C       3        0.0%
NULL                 0      0       0       0        0.0%
STACK                0      0       0       2        0.0%
EEDATA             100      0       0       0        0.0%


Microchip Technology PIC Macro Assembler V2.10 build 88905656 
Symbol Table                                                                                   Fri Jun 19 10:03:06 2020

                        pc 0002             ___bmul@product 0022                __CFG_CP$OFF 0000  
                       l83 0D26               ___awdiv@sign 002D                         _s0 00C3  
                       _s1 00B7                         _s2 01E4                         _s3 01D8  
                       _s4 01CC                         _s5 01C0                         _s6 01B4  
                       _s7 01A8                         _s8 019C                         _s9 0190  
                       fsr 0004        ___wmul@multiplicand 0022             _GetDigits$1152 0035  
              __CFG_LVP$ON 0000                        l125 0713                        l302 0F62  
                      l119 06C2                        l128 073B                        l224 0175  
                      l216 00BE                        l305 0C68                        l218 0093  
                      l251 03E2                        l229 028F                        l270 0CCA  
                      l344 07DC                        l264 0C40                        l440 0CD9  
                      l505 0F77                        l273 0D60                        l442 0CF1  
                      l267 0CBE                        l515 0FFF                        l276 0C26  
                      l285 0CA4                        l606 0E8E                        l278 0C2A  
                      l279 0C2D                        l296 0D9A                        l466 0C7F  
                      l299 0DD9                        l593 0EF7               __CFG_CPD$OFF 0000  
                      _ISR 0DDA                        _s10 014C                        _s11 0140  
                      _s12 0134                        _s13 0128                        _s14 011C  
                      _s15 0110                        _car 004D                        _map 0CF2  
                      fsr0 0004                        _str 00B3                        indf 0000  
             ___awmod@sign 0026               __CFG_FOSC$HS 0000                       ?_ISR 0075  
              main@colorId 015A                       l3000 0230                       l3010 0295  
                     l3002 027D                       l3020 02DE                       l3012 0299  
                     l3030 035B                       l3022 02E6                       l3014 02A1  
                     l3006 0286                       l3040 0383                       l3032 0360  
                     l3024 0317                       l3016 02A2                       l3050 03D8  
                     l3042 0398                       l3034 0365                       l3026 031A  
                     l3018 02DB                       l3060 03EB                       l3052 03DC  
                     l3036 0379                       l3028 0353                       l3070 047D  
                     l3062 03F8                       l3054 03E0                       l3038 037E  
                     l3046 03AD                       l2600 06EC                       l3080 0498  
                     l3064 03FC                       l3056 03E6                       l3048 03C0  
                     l2602 0700                       l3090 054F                       l3082 04A7  
                     l3074 0486                       l3058 03EA                       l2700 0EB2  
                     l2612 0727                       l2604 0706                       l2620 0C83  
                     l3092 0560                       l3076 048A                       l3068 040A  
                     l2710 0ED5                       l2702 0EB5                       l2630 0CCF  
                     l2614 072D                       l2606 0719                       l2550 0C2B  
                     l2622 0C86                       l3094 0571                       l3086 04AE  
                     l3190 03B5                       l2720 0EEE                       l2712 0EDB  
                     l2704 0EBC                       l3192 07A9                       l2800 0764  
                     l2632 0CD3                       l2616 073A                       l2608 0726  
                     l2560 0695                       l2552 0677                       l2624 0C91  
                     l3088 04BB                       l2722 0EF3                       l2714 0EDC  
                     l2706 0EC0                       l2730 0E3B                       l2810 07BA  
                     l2802 0783                       l2650 0F86                       l2642 0F63  
                     l2634 0CE0                       l2554 0686                       l2626 0C99  
                     l2716 0EE3                       l2708 0EC4                       l2740 0E51  
                     l2732 0E40                       l2820 0D9B                       l2812 07C7  
                     l2660 0FAA                       l2652 0F8A                       l2644 0F66  
                     l2636 0CE7                       l2628 0CCB                       l2580 06D0  
                     l2572 069B                       l2556 0693                       l2548 0C26  
                     l3188 00B6                       l2900 004A                       l2718 0EE9  
                     l2750 0E6D                       l2742 0E54                       l2734 0E42  
                     l2726 0E34                       l2830 0DD5                       l2822 0DA9  
                     l2814 07CF                       l2806 07A2                       l2670 0FD8  
                     l2662 0FAE                       l2654 0F92                       l2646 0F6A  
                     l2638 0CED                       l2574 06AF                       l2566 0697  
                     l2558 0694                       l2910 0057                       l2902 0050  
                     l2760 0E8A                       l2752 0E73                       l2744 0E5B  
                     l2736 0E46                       l2728 0E37                       l2840 0F39  
                     l2824 0DB1                       l2808 07B4                       l2672 0FE1  
                     l2664 0FB7                       l2656 0F9A                       l2648 0F7B  
                     l2584 06D1                       l2576 06B5                       l2920 007D  
                     l2912 005B                       l2904 0051                       l2690 0E9D  
                     l2682 0E8F                       l2754 0E7A                       l2746 0E5F  
                     l2738 0E4B                       l2842 0F4F                       l2834 0EF8  
                     l2826 0DC2                       l2666 0FC9                       l2658 0F9D  
                     l2674 0FE7                       l2770 0C32                       l2594 06E8  
                     l2586 06D7                       l2578 06C8                       l2850 0D77  
                     l2930 0089                       l2922 0081                       l2914 005D  
                     l2906 0053                       l2692 0EA1                       l2684 0E92  
                     l2748 0E63                       l2756 0E80                       l2836 0EFE  
                     l2828 0DCD                       l2844 0C57                       l2676 0FEC  
                     l2668 0FD7                       l2780 0D5D                       l2772 0C35  
                     l2764 0CF2                       l2588 06E4                       l2860 0D87  
                     l2940 0096                       l2932 0089                       l2924 0083  
                     l2916 0062                       l2908 0055                       l2870 0CC2  
                     l2694 0EA6                       l2686 0E96                       l2758 0E85  
                     l2838 0F14                       l2846 0C66                       l2678 0FF7  
                     l2782 0D5E                       l2774 0C39                       l2862 0D8D  
                     l2942 009C                       l2950 00A9                       l2934 0089  
                     l2926 0086                       l2918 006D                       ?_map 0030  
                     l2864 0CA8                       l2696 0EAA                       l2688 0E9B  
                     l2792 0740                       l2784 0D5F                       l2776 0D27  
                     l2880 0C75                       l2768 0C2E                       l2856 0D79  
                     l2848 0D64                       l2960 00CA                       l2952 00C2  
                     l2944 009F                       l2936 008C                       l2928 0089  
                     l2866 0CB4                       l2698 0EAC                       l2786 073C  
                     l2778 0D2F                       l2882 0C77                       l2874 0C6C  
                     l2858 0D81                       l2970 00F1                       l2962 00CC  
                     l2954 00C3                       l2946 00A5                       l2868 0CBB  
                     l2884 0C7E                       l2876 0C6D                       l2980 017B  
                     l2972 0116                       l2956 00C4                       l2798 0745  
                     l2878 0C71                       l2982 018C                       l2974 012B  
                     l2958 00C6                       l2992 01C7                       l2984 0192  
                     l2976 0160                       l2968 00D0                       l2994 01CB  
                     l2986 01B5                       l2978 0168                       l2988 01B9  
                     l2998 01D9                       u3000 0092                       u3001 0091  
                     u3010 009C                       u3011 009B                       u3100 01D8  
                     u3020 00A5                       u3101 01D7                       u3021 00A4  
                     u3110 0230                       u3030 00C2                       u3111 022F  
                     u3031 00C1                       u3200 0383                       u3120 0295  
                     u3040 00CA                       u3201 0382                       u3121 0294  
                     u3105 01D4                       u3041 00C9                       u3210 03DC  
                     u3130 0299                       u3211 03DB                       u3131 0298  
                     u3115 022C                       u2500 06E4                       u3300 0497  
                     u3220 03E0                       u3140 02DB                       u3060 0175  
                     u2501 06E3                       u3301 0496                       u3221 03DF  
                     u3141 02DA                       u3061 0174                       u3310 04BB  
                     u3230 03E6                       u3150 02E6                       u3070 017B  
                     u3311 04BA                       u3231 03E5                       u3151 02E5  
                     u3071 017A                       u3055 0107                       u2600 0CED  
                     u2520 0713                       u3240 03EA                       u3160 0317  
                     u3080 01B5                       u2601 0CEC                       u2521 0712  
                     u2505 06E0                       u3305 0493                       u3241 03E9  
                     u3161 0316                       u3081 01B4                       u3065 0171  
                     u2610 0F6A                       u2530 0719                       u2514 06F8  
                     u2450 0C2A                       u3250 03F8                       u3170 035B  
                     u3090 01C6                       u2611 0F69                       u2531 0718  
                     u2515 06F6                       u2451 0C29                       u3251 03F7  
                     u3171 035A                       u3091 01C5                       u2700 0FEC  
                     u2620 0F7B                       u3260 0409                       u3180 0365  
                     u2701 0FEB                       u2621 0F7A                       u2525 070F  
                     u3261 0408                       u3181 0364                       u3165 0313  
                     u2710 0E96                       u2630 0F9A                       u2550 073A  
                     u3190 037E                       u2711 0E95                       u2631 0F99  
                     u3327 0C3D                       u2551 0739                       u3191 037D  
                     u3095 01C2                       u2800 0EEE                       u2720 0EA1  
                     u2544 071F                       u2480 06C2                       u2560 0CA4  
                     u3337 0CB8                       u2801 0EED                       u2721 0EA0  
                     u2545 071D                       u2481 06C1                       u2465 0689  
                     u2561 0CA3                       u3265 0405                       u2730 0EB2  
                     u2810 0E3B                       u2650 0FAE                       u2570 0CD3  
                     u2490 06C8                       u2474 06A7                       u3274 0426  
                     u2731 0EB1                       u2811 0E3A                       u2651 0FAD  
                     u2571 0CD2                       u2555 0736                       u2491 06C7  
                     u2475 06A5                       u3275 0424                       u2820 0E46  
                     u2900 0D3E                       u3284 044D                       u2821 0E45  
                     u2645 0F9F                       u2485 06BE                       u3285 044B  
                     u2750 0EC4                       u2830 0E51                       u2910 07C7  
                     u2670 0FC9                       u3294 0474                       u2751 0EC3  
                     u2831 0E50                       u2911 07C6                       u2671 0FC8  
                     u3295 0472                       u2920 07DC                       u2745 0EB6  
                     u2921 07DB                       u2665 0FB0                       u2905 0D39  
                     u2585 0CDA                       u2770 0ED5                       u2850 0E63  
                     u2690 0FE7                       u2771 0ED4                       u2851 0E62  
                     u2915 07C3                       u2691 0FE6                       u2675 0FC5  
                     u2595 0CE1                       u2860 0E6D                       u2940 0D9A  
                     u2765 0EC5                       u2861 0E6C                       u2845 0E55  
                     u2925 07D8                       u2685 0FD9                       u2941 0D99  
                     u2790 0EE9                       u2791 0EE8                       u2775 0ED1  
                     u2935 0DB7                       u2960 0CC2                       u2880 0E80  
                     u2961 0CC1                       u2785 0EDD                       u2881 0E7F  
                     u2865 0E69                       u2945 0D96                       u2890 0E85  
                     u2970 0C71                       u2955 0CAB                       u2891 0E84  
                     u2875 0E74                       u2971 0C70                       u2980 0C7E  
                     _RCIF 0065                       u2981 0C7D                       _TMR0 0001  
                     _TXIF 0064               __CFG_WRT$OFF 0000                       _disp 005B  
                     _main 004A                       _time 0072                       map@x 0030  
                     btemp 007E           __end_of_ADC_Read 0CCB              __CFG_BOREN$ON 0000  
              main@umidita 015F                       start 000E            __end_of_GetTime 0DDA  
        ___bmul@multiplier 0023               main@endCiclo 0161    __end_of_UART_Write_Text 0CA5  
                    ??_ISR 0076  __size_of_conteggioVeicoli 00EE                      ??_map 003A  
          __end_of___aldiv 1000                      ?_main 0075            __end_of___awdiv 0EF8  
            __CFG_WDTE$OFF 0000            __end_of___awmod 0E8F            ___awdiv@divisor 0027  
                    _T1CON 0010                      i1l320 0609                      i1l314 05CE  
                    i1l332 0673                      i1l308 0593                      i1l326 0644  
                    i1l290 0C20                      i1l354 0E2B                      i1l291 0C22  
                    i1l288 0C1A            ___awdiv@counter 002C                      _RCREG 001A  
                    _TMR1H 000F                      _TMR1L 000E                      _SPBRG 0099  
                    _PORTD 0008                      _TRISA 0085                      _TRISB 0086  
                    _TRISC 0087                      _TRISD 0088                      _TRISE 0089  
                    _TXREG 0019              __CFG_PWRTE$ON 0000         __size_of_UART_Init 003A  
       __size_of_UART_Read 0009            __end_of_display 0811                      _count 0070  
                    _unita 005F                      main@i 0165                      main@l 0169  
                    _truck 00AF                      pclath 000A                      status 0003  
                    wtemp0 007E            __initialization 0011               __end_of_main 0586  
       __size_of_GetDigits 006B                     ??_main 003D          SetDefaultTimers@i 002E  
        SetDefaultTimers@l 002C         __size_of_BuildByte 00C8                 _SetDisplay 0C54  
                   _ADCON0 001F                     _ADCON1 009F                     _ADRESH 001E  
                   _ADRESL 009E           ___awdiv@dividend 0029                     i1l2112 0C1A  
                   i1l2120 058C                     i1l2114 0C21                     i1l2130 05B1  
                   i1l2122 0597                     i1l2140 05D2                     i1l2132 05BA  
                   i1l2124 05A0                     i1l2150 05F5                     i1l2142 05DB  
                   i1l2134 05C0                     i1l2126 05A4                     i1l2118 0586  
                   u200_20 0651                     i1l2160 0616                     i1l2152 05FB  
                   i1l2144 05DF                     i1l2128 05AD                     i1l2136 05C2  
                   u200_21 0650                     i1l2170 0636                     i1l2162 061A  
                   i1l2146 05E8                     i1l2154 05FD                     i1l2138 05C7  
                   i1l2180 0655                     i1l2164 0623                     i1l2172 0638  
                   i1l2156 0602                     i1l2148 05EC                     i1l2182 065E  
                   i1l2174 063D                     i1l2166 0627                     i1l2158 060D  
                   i1l2430 0DE7                     i1l2184 0662                     u201_20 065E  
                   i1l2176 0648                     i1l2168 0630                     i1l2440 0E03  
                   i1l2432 0DE9                     i1l2424 0DDA                     u201_21 065D  
                   i1l2186 066B                     i1l2178 0651                     i1l2450 0E12  
                   i1l2434 0DED                     i1l2442 0E04                     i1l2426 0DE0  
                   i1l2188 0671                     i1l2460 0E22                     i1l2452 0E16  
                   i1l2444 0E08                     i1l2436 0DF1                     i1l2428 0DE4  
                   i1l2462 0E23                     i1l2454 0E17                     i1l2446 0E09  
                   i1l2438 0DFF                     u202_20 066B                     i1l2464 0E27  
                   i1l2456 0E1B                     i1l2448 0E0E                     u202_21 066A  
                   i1l2466 0E29                     i1l2458 0E21                     u240_20 0DED  
                   u240_21 0DEC                     u241_20 0DF1                     _INTCON 000B  
                   u241_21 0DF0                     u242_20 0E08                     u242_21 0E07  
                   u243_20 0E16                     u243_21 0E15                     u244_20 0E21  
                   u244_21 0E20                     u182_20 0C20                     u190_20 05DB  
                   u238_20 0DE0                     u182_21 0C1F                     u190_21 05DA  
                   u238_21 0DDF                     u191_20 05E8                     u183_20 058C  
                   u239_20 0DE4                     u191_21 05E7                     u183_21 058B  
                   u239_21 0DE3                     u192_20 05F5                     u184_20 0597  
                   u192_21 05F4                     u184_21 0596                     u193_20 0602  
                   u185_20 05A0                     u193_21 0601                     u185_21 059F  
                   u194_20 060D                     u186_20 05AD                     u194_21 060C  
                   u186_21 05AC                     u195_20 0616                     u187_20 05BA  
                   u195_21 0615                     u187_21 05B9                     u196_20 0623  
                   u188_20 05C7                     u196_21 0622                     u188_21 05C6  
                   u197_20 0630                     u189_20 05D2                     u197_21 062F  
                   u189_21 05D1                     u198_20 063D                     u198_21 063C  
                   u199_20 0648                     u199_21 0647                     _TMR0IF 005A  
                   _TMR1IF 0060                  ??_GetTime 0022               ?_UART_TxChar 0075  
        __end_of_UART_Init 0D61          __end_of_UART_Read 0C23                     ___bmul 0C69  
                ??___aldiv 0028            GetTime@shortInt 0024                     ___wmul 0CCB  
                ??___awdiv 002B                     _decine 005E                  ??___awmod 0024  
         ?_UART_Write_Text 0075           __end_of_init_ADC 0C41                     _cycled 0060  
         ___awdiv@quotient 002E            ___awmod@divisor 0020            ___awmod@counter 0025  
         __end_of_sendByte 0D9B              main@pressione 0160                  ?_ADC_Read 0020  
                   saved_w 007E    __end_of__initialization 0046          __end_of_GetDigits 0F63  
__size_of_SetDefaultTimers 00A1        ___bmul@multiplicand 0020             __pcstackCOMMON 0075  
        __end_of_BuildByte 073C               __pidataBANK1 07DD           _conteggioVeicoli 0586  
               ??_ADC_Read 0022     SetDefaultTimers@giallo 0024                ?_SetDisplay 0020  
            GetDigits@Time 0030       _dataFromGatewayIndex 0059       _timerReadFromGateway 0058  
               __pbssBANK0 004D                 __pbssBANK1 00A0                 __pbssBANK2 0110  
               __pbssBANK3 0190                 __pmaintext 004A                    ?___bmul 0020  
                  ?___wmul 0020              sendByte@byte0 0039              sendByte@byte1 0034  
               __pintentry 0004                 _colorIndex 0057                 __stringtab 0800  
                ?_init_ADC 0075                    _GetTime 0D9B            BuildByte@valore 0021  
          BuildByte@txByte 0025                  ?_sendByte 0034                 _n_semafori 0055  
     __size_of_UART_TxChar 000B                    ___aldiv 0F63            __size_of___bmul 0017  
                  ___awdiv 0E8F                    ___awmod 0E34        __size_of_SetDisplay 0015  
          __size_of___wmul 0027                    __ptext1 0D61                    __ptext2 0C80  
                  __ptext3 0C23                    __ptext4 0674                    __ptext5 0CF2  
                  __ptext6 0CCB                    __ptext7 0C2E                    __ptext8 0C69  
                  __ptext9 0D27             main@semaforoId 015C                    _comando 0073  
                  _display 0806               __size_of_ISR 005A               __size_of_map 0035  
         ___awmod@dividend 0022           ___aldiv@dividend 0024       BuildByte@sommaColumn 002B  
                  clrloop0 0C13       end_of_initialization 0046                 ??_init_ADC 0020  
           main@lux_select 0164                 ??_sendByte 0036           _SetDefaultTimers 073C  
                _RCSTAbits 0018           ___aldiv@quotient 002B                 _motorcycle 0051  
                _UART_Init 0D27                  _UART_Read 0C1A                  _PORTAbits 0005  
                _PORTBbits 0006               SetDisplay@d1 0023               SetDisplay@d2 0020  
             SetDisplay@d3 0021                  _TRISCbits 0087          __size_of_ADC_Read 0026  
 __end_of_conteggioVeicoli 0674                 map@out_max 0038                 map@out_min 0036  
                _TXSTAbits 0098                  _GetDigits 0EF8             __end_of___bmul 0C80  
           __end_of___wmul 0CF2                 ?_UART_Init 002F                 ?_UART_Read 0075  
                _BuildByte 0674          BuildByte@sommaRow 002A   __size_of_UART_Write_Text 0025  
      start_initialization 0011                __end_of_ISR 0E34               ??_SetDisplay 0023  
              __end_of_map 0D27                 ?_GetDigits 0030                   ??___bmul 0021  
           ADC_Read@canale 0023                   ??___wmul 0024                 init_fetch0 0C41  
              __pdataBANK1 00CF         __end_of_SetDisplay 0C69                 ?_BuildByte 0020  
              __pbssCOMMON 0070                  ___latbits 0002              __pcstackBANK0 0020  
            __pcstackBANK2 0158                   ?_GetTime 0020      SetDefaultTimers@verde 0022  
    SetDefaultTimers@rosso 0020          __size_of_init_ADC 0013                  _centinaia 005D  
        __size_of_sendByte 003A                   ?___aldiv 0020                   ?___awdiv 0027  
                 ?___awmod 0020                ??_UART_Init 0031                ??_UART_Read 0075  
           BuildByte@i_342 0032                  __pstrings 0800             BuildByte@y_343 002E  
           sendByte@valore 0035             sendByte@txByte 003A             BuildByte@byte0 0024  
           BuildByte@byte1 0020   __end_of_SetDefaultTimers 07DD                   _ADC_Read 0CA5  
                _count_lux 0074                  _countdown 005A              UART_TxChar@ch 0020  
        ??_UART_Write_Text 0021            ___aldiv@divisor 0020          interrupt_function 0004  
          ___aldiv@counter 0029             ___wmul@product 0024                  clear_ram0 0C12  
                 _PIE1bits 008C              ??_UART_TxChar 0020                ??_GetDigits 0032  
                 _GO_nDONE 00FA          UART_Init@baudrate 002F                ??_BuildByte 0022  
                map@in_max 0034                  map@in_min 0032                __stringbase 0805  
                main@i_445 016B                  main@i_446 016D                  main@i_447 0167  
        ___wmul@multiplier 0020                  main@index 0158               GetTime@index 0020  
        ?_conteggioVeicoli 0075               _secondPassed 0061         ??_conteggioVeicoli 0075  
         __size_of_GetTime 003F                   _Semafori 00CF                _readGateway 0062  
         __size_of___aldiv 009D        __end_of_UART_TxChar 0C2E           __size_of___awdiv 0069  
         __size_of___awmod 005B         __end_of__stringtab 0806                  sendByte@i 003B  
                 __ptext10 0F63                   __ptext11 0C54                   __ptext20 0C1A  
                 __ptext12 073C                   __ptext13 0D9B                   __ptext14 0EF8  
                 __ptext15 0E34                   __ptext16 0E8F                   __ptext17 0CA5  
                 __ptext18 0DDA                   __ptext19 0586                   _init_ADC 0C2E  
      UART_Write_Text@text 0022              __size_of_main 053C            _dataFromGateway 00A0  
                 _old_disp 005C                   _sendByte 0D61                   main@temp 015E  
                 main@time 0162                GetTime@time 0025                 _INTCONbits 000B  
                 init_ram0 0C45                   intlevel1 0000            _readGatewayDone 0063  
                stringcode 0800                _UART_TxChar 0C23            _UART_Write_Text 0C80  
               _OPTION_REG 0081            SetDisplay@value 0022                   stringdir 0800  
                 stringtab 0800          ?_SetDefaultTimers 0020               ___aldiv@sign 002A  
       ??_SetDefaultTimers 0026                 BuildByte@i 0030                 BuildByte@y 002C  
         UART_Write_Text@i 0023  
