Microchip MPLAB XC8 Compiler V2.10 ()

Linker command line:

-W-3 --edf=C:\Program Files (x86)\Microchip\xc8\v2.10\pic\dat\en_msgs.txt \
  -cs -h+dist/default/production\Semaforo.X.production.sym \
  --cmf=dist/default/production\Semaforo.X.production.cmf -z -Q16F877A \
  -oC:\Users\Rigna\AppData\Local\Temp\s4n4.2 --defsym=__MPLAB_BUILD=1 \
  -Mdist/default/production/Semaforo.X.production.map -E1 -ver=XC8 \
  --acfsm=1493 -ASTACK=0110h-016Fh -pstack=STACK -ACODE=00h-07FFhx4 \
  -ASTRCODE=00h-01FFFh -ASTRING=00h-0FFhx32 -ACONST=00h-0FFhx32 \
  -AENTRY=00h-0FFhx32 -ACOMMON=070h-07Fh -ABANK0=020h-06Fh \
  -ABANK1=0A0h-0EFh -ABANK2=0110h-016Fh -ABANK3=0190h-01EFh \
  -ARAM=020h-06Fh,0A0h-0EFh,0110h-016Fh,0190h-01EFh \
  -AABS1=020h-07Fh,0A0h-0EFh,0110h-016Fh,0190h-01EFh -ASFR0=00h-01Fh \
  -ASFR1=080h-09Fh -ASFR2=0100h-010Fh -ASFR3=0180h-018Fh \
  -preset_vec=00h,intentry=04h,init,end_init -ppowerup=CODE -pcinit=CODE \
  -pfunctab=ENTRY -ACONFIG=02007h-02007h -pconfig=CONFIG -DCONFIG=2 \
  -AIDLOC=02000h-02003h -pidloc=IDLOC -DIDLOC=2 -AEEDATA=00h-0FFh/02100h \
  -peeprom_data=EEDATA -DEEDATA=2 -DCODE=2 -DSTRCODE=2 -DSTRING=2 -DCONST=2 \
  -DENTRY=2 -k C:\Users\Rigna\AppData\Local\Temp\s4n4.o \
  dist/default/production\Semaforo.X.production.o 

Object code version is 3.11

Machine type is 16F877A



                Name                               Link     Load   Length Selector   Space Scale
C:\Users\Rigna\AppData\Local\Temp\s4n4.o
                end_init                             10       10        3        8       0
                reset_vec                             0        0        3        0       0
                config                             2007     2007        1     400E       0
dist/default/production\Semaforo.X.production.o
                cinit                                13       13       48        8       0
                intentry                              4        4        C        8       0
                text26                              A2A      A2A        9     1454       0
                text25                              BA9      BA9       4C     1752       0
                text24                              DB9      DB9       65     1B72       0
                text23                              D58      D58       61     1AB0       0
                text22                              A68      A68       26     14D0       0
                text21                              E1E      E1E       69     1C3C       0
                text20                              C9D      C9D       5B     193A       0
                text19                              A51      A51       17     14A2       0
                text18                              4C7      4C7       CD        8       0
                text17                              65C      65C       B7        8       0
                text16                              B1B      B1B       46     1636       0
                text15                              CF8      CF8       60     19F0       0
                text14                              C48      C48       55     1890       0
                text13                              713      713       AD        8       0
                text12                              F63      F63       9D     1EC6       0
                text11                              7C0      7C0       3A        8       0
                text10                              E87      E87       6B     1D0E       0
                text9                               A3E      A3E       13     147C       0
                text8                               BF5      BF5       53     17EA       0
                text7                               A8E      A8E       27     151C       0
                text6                               AE6      AE6       35     15CC       0
                text5                               B61      B61       48     16C2       0
                text4                               EF2      EF2       71     1DE4       0
                text3                               594      594       C8        8       0
                text2                               A33      A33        B     1466       0
                text1                               AB5      AB5       31     156A       0
                maintext                             5B       5B      46C        8       0
                cstackBANK0                          20       20       3B       20       1
                cstackCOMMON                         70       70        E       70       1
                cstackBANK3                         190      190        A      190       1
                clrtext                             A22      A22        8     1444       0
                dataBANK1                            EB       EB        4       A0       1
                bssBANK1                             A0       A0       4B       A0       1
                dataBANK0                            62       62        4       20       1
                bssBANK0                             5B       5B        7       20       1
                strings                             800      800       12     1000       0
                idataBANK1                          A1E      A1E        4     143C       0
                idataBANK0                          7FA      7FA        4        8       0

TOTAL           Name                               Link     Load   Length     Space
        CLASS   STACK          

        CLASS   CODE           
                end_init                             10       10        3         0
                cinit                                13       13       48         0
                intentry                              4        4        C         0
                reset_vec                             0        0        3         0
                text26                              A2A      A2A        9         0
                text25                              BA9      BA9       4C         0
                text24                              DB9      DB9       65         0
                text23                              D58      D58       61         0
                text22                              A68      A68       26         0
                text21                              E1E      E1E       69         0
                text20                              C9D      C9D       5B         0
                text19                              A51      A51       17         0
                text18                              4C7      4C7       CD         0
                text17                              65C      65C       B7         0
                text16                              B1B      B1B       46         0
                text15                              CF8      CF8       60         0
                text14                              C48      C48       55         0
                text13                              713      713       AD         0
                text12                              F63      F63       9D         0
                text11                              7C0      7C0       3A         0
                text10                              E87      E87       6B         0
                text9                               A3E      A3E       13         0
                text8                               BF5      BF5       53         0
                text7                               A8E      A8E       27         0
                text6                               AE6      AE6       35         0
                text5                               B61      B61       48         0
                text4                               EF2      EF2       71         0
                text3                               594      594       C8         0
                text2                               A33      A33        B         0
                text1                               AB5      AB5       31         0
                maintext                             5B       5B      46C         0
                clrtext                             A22      A22        8         0
                idataBANK1                          A1E      A1E        4         0
                idataBANK0                          7FA      7FA        4         0

        CLASS   STRCODE        

        CLASS   STRING         
                strings                             800      800       12         0

        CLASS   CONST          

        CLASS   ENTRY          

        CLASS   COMMON         
                cstackCOMMON                         70       70        E         1

        CLASS   BANK0          
                cstackBANK0                          20       20       3B         1
                dataBANK0                            62       62        4         1
                bssBANK0                             5B       5B        7         1

        CLASS   BANK1          
                dataBANK1                            EB       EB        4         1
                bssBANK1                             A0       A0       4B         1

        CLASS   BANK2          

        CLASS   BANK3          
                cstackBANK3                         190      190        A         1

        CLASS   RAM            

        CLASS   ABS1           
                abs_s1                               7E       7E        2         1

        CLASS   SFR0           

        CLASS   SFR1           

        CLASS   SFR2           

        CLASS   SFR3           

        CLASS   CONFIG         
                config                             2007     2007        1         0

        CLASS   IDLOC          

        CLASS   EEDATA         



SEGMENTS        Name                           Load    Length   Top    Selector   Space  Class     Delta

                reset_vec                      000000  000003  000003         0       0  CODE        2
                intentry                       000004  0007FA  0007FE         8       0  CODE        2
                cstackBANK0                    000020  000046  000066        20       1  BANK0       1
                cstackCOMMON                   000070  00000E  00007E        70       1  COMMON      1
                bssBANK1                       0000A0  00004F  0000EF        A0       1  BANK1       1
                cstackBANK3                    000190  00000A  00019A       190       1  BANK3       1
                strings                        000800  000012  000812      1000       0  STRING      2
                idataBANK1                     000A1E  000004  000A22      143C       0  CODE        2
                clrtext                        000A22  000008  000A2A      1444       0  CODE        2
                text26                         000A2A  000009  000A33      1454       0  CODE        2
                text2                          000A33  00000B  000A3E      1466       0  CODE        2
                text9                          000A3E  000013  000A51      147C       0  CODE        2
                text19                         000A51  000017  000A68      14A2       0  CODE        2
                text22                         000A68  000026  000A8E      14D0       0  CODE        2
                text7                          000A8E  000027  000AB5      151C       0  CODE        2
                text1                          000AB5  000031  000AE6      156A       0  CODE        2
                text6                          000AE6  000035  000B1B      15CC       0  CODE        2
                text16                         000B1B  000046  000B61      1636       0  CODE        2
                text5                          000B61  000048  000BA9      16C2       0  CODE        2
                text25                         000BA9  00004C  000BF5      1752       0  CODE        2
                text8                          000BF5  000053  000C48      17EA       0  CODE        2
                text14                         000C48  000055  000C9D      1890       0  CODE        2
                text20                         000C9D  00005B  000CF8      193A       0  CODE        2
                text15                         000CF8  000060  000D58      19F0       0  CODE        2
                text23                         000D58  000061  000DB9      1AB0       0  CODE        2
                text24                         000DB9  000065  000E1E      1B72       0  CODE        2
                text21                         000E1E  000069  000E87      1C3C       0  CODE        2
                text10                         000E87  00006B  000EF2      1D0E       0  CODE        2
                text4                          000EF2  000071  000F63      1DE4       0  CODE        2
                text12                         000F63  00009D  001000      1EC6       0  CODE        2
                config                         002007  000001  002008      400E       0  CONFIG      2


UNUSED ADDRESS RANGES

        Name                Unused          Largest block    Delta
        BANK0            0066-006F              A           1
        BANK1            00EF-00EF              1           1
        BANK2            0110-016F             60           1
        BANK3            019A-01EF             56           1
        CODE             0003-0003              1           2
                         07FE-07FF              2
                         0812-0A1D            20C
                         1000-1FFF            800
        CONST            0003-0003              1           2
                         07FE-07FF              2
                         0812-0A1D            100
                         1000-1FFF            100
        EEDATA           2100-21FF            100           2
        ENTRY            0003-0003              1           2
                         07FE-07FF              2
                         0812-0A1D            100
                         1000-1FFF            100
        IDLOC            2000-2003              4           2
        RAM              0066-006F              A           1
                         00EF-00EF              1
                         0110-016F             60
                         019A-01EF             56
        SFR0             0000-001F             20           1
        SFR1             0080-009F             20           1
        SFR2             0100-010F             10           1
        SFR3             0180-018F             10           1
        STACK            0110-016F             60           1
        STRCODE          0003-0003              1           2
                         07FE-07FF              2
                         0812-0A1D            20C
                         1000-1FFF           1000
        STRING           0003-0003              1           2
                         07FE-07FF              2
                         0812-0A1D            100
                         1000-1FFF            100

                                  Symbol Table

?_ADC_Read                        cstackBANK0  0024
?_GetTime                         cstackBANK0  0024
?___aldiv                         cstackBANK0  0024
?___awdiv                         cstackBANK0  003F
?___awmod                         cstackBANK0  0038
?___lmul                          cstackBANK0  0024
?___wmul                          cstackBANK0  0024
?_map                             cstackBANK0  0048
?_rand                            cstackBANK0  0031
ADC_Read@canale                   cstackBANK0  0027
BuildByte@byte0                   cstackBANK0  0028
BuildByte@byte1                   cstackBANK0  0024
BuildByte@i                       cstackBANK0  0034
BuildByte@i_341                   cstackBANK0  0036
BuildByte@sommaColumn             cstackBANK0  002F
BuildByte@sommaRow                cstackBANK0  002E
BuildByte@txByte                  cstackBANK0  0029
BuildByte@valore                  cstackBANK0  0025
BuildByte@y                       cstackBANK0  0030
BuildByte@y_342                   cstackBANK0  0032
Conteggio@_car                    cstackCOMMON 0073
Conteggio@_count                  cstackCOMMON 0070
Conteggio@_motorcycle             cstackCOMMON 0072
Conteggio@_truck                  cstackCOMMON 0074
Conteggio@index                   cstackCOMMON 0075
GetDigits@Time                    cstackBANK0  0049
GetDigits@_digits                 cstackBANK0  0050
GetDigits@index                   cstackBANK0  0048
GetTime@_dataFromGateway          cstackBANK0  0024
GetTime@index                     cstackBANK0  0028
GetTime@shortInt                  cstackBANK0  0029
GetTime@tmp                       cstackBANK0  002A
SetDefaultTimers@_semafori        cstackBANK0  002A
SetDefaultTimers@giallo           cstackBANK0  0028
SetDefaultTimers@i                cstackBANK0  002F
SetDefaultTimers@l                cstackBANK0  002E
SetDefaultTimers@rosso            cstackBANK0  0024
SetDefaultTimers@verde            cstackBANK0  0026
SetDisplay@d1                     cstackBANK0  0024
SetDisplay@d2                     cstackBANK0  0025
SetDisplay@d3                     cstackBANK0  0026
SetDisplay@display_index          cstackBANK0  002A
SetDisplay@value                  cstackBANK0  0027
SetReceivedTimes@_dataFromGateway cstackBANK0  0033
SetReceivedTimes@_semafori        cstackBANK0  002C
SetReceivedTimes@colorId          cstackBANK0  0032
SetReceivedTimes@i                cstackBANK0  0035
SetReceivedTimes@index            cstackBANK0  0034
SetReceivedTimes@semaforoId       cstackBANK0  0031
ShowDigitsOnDisplay@display_index cstackBANK0  0041
UART_Init@baudrate                cstackBANK0  0033
UART_TxChar@ch                    cstackBANK0  0024
UpdateTimes@_semafori             cstackBANK0  002E
UpdateTimes@i                     cstackBANK0  002F
UpdateTimes@l                     cstackBANK0  0030
_ADCON0                           (abs)        001F
_ADCON1                           (abs)        009F
_ADC_Read                         text22       0A68
_ADRESH                           (abs)        001E
_ADRESL                           (abs)        009E
_BuildByte                        text3        0594
_Conteggio                        text25       0BA9
_DigitsArr                        dataBANK0    0062
_GO_nDONE                         (abs)        00FA
_GetDigits                        text18       04C7
_GetDigits$1203                   cstackBANK0  004E
_GetTime                          text16       0B1B
_INTCON                           (abs)        000B
_INTCONbits                       (abs)        000B
_ISR                              text23       0D58
_OPTION_REG                       (abs)        0081
_PIE1bits                         (abs)        008C
_PORTAbits                        (abs)        0005
_PORTBbits                        (abs)        0006
_PORTCbits                        (abs)        0007
_PORTD                            (abs)        0008
_RCIF                             (abs)        0065
_RCREG                            (abs)        001A
_RCSTAbits                        (abs)        0018
_RoadsSensors                     bssBANK1     00A0
_SPBRG                            (abs)        0099
_Semafori                         dataBANK0    0064
_SetDefaultTimers                 text17       065C
_SetDisplay                       text14       0C48
_SetReceivedTimes                 text15       0CF8
_ShowDigitsOnDisplay              text13       0713
_T1CON                            (abs)        0010
_TMR0                             (abs)        0001
_TMR0IF                           (abs)        005A
_TMR1H                            (abs)        000F
_TMR1IF                           (abs)        0060
_TMR1L                            (abs)        000E
_TRISA                            (abs)        0085
_TRISB                            (abs)        0086
_TRISC                            (abs)        0087
_TRISCbits                        (abs)        0087
_TRISD                            (abs)        0088
_TRISE                            (abs)        0089
_TXIF                             (abs)        0064
_TXREG                            (abs)        0019
_TXSTAbits                        (abs)        0098
_UART_Init                        text11       07C0
_UART_Read                        text26       0A2A
_UART_TxChar                      text2        0A33
_UpdateTimes                      text10       0E87
__CFG_BOREN$ON                    (abs)        0000
__CFG_CP$OFF                      (abs)        0000
__CFG_CPD$OFF                     (abs)        0000
__CFG_FOSC$HS                     (abs)        0000
__CFG_LVP$ON                      (abs)        0000
__CFG_PWRTE$ON                    (abs)        0000
__CFG_WDTE$OFF                    (abs)        0000
__CFG_WRT$OFF                     (abs)        0000
__Habs1                           abs1         0000
__Hbank0                          bank0        0000
__Hbank1                          bank1        0000
__Hbank2                          bank2        0000
__Hbank3                          bank3        0000
__HbssBANK0                       bssBANK0     0000
__HbssBANK1                       bssBANK1     0000
__Hcinit                          cinit        005B
__Hclrtext                        clrtext      0000
__Hcode                           code         0000
__Hcommon                         common       0000
__Hconfig                         config       2008
__HcstackBANK0                    cstackBANK0  0000
__HcstackBANK3                    cstackBANK3  0000
__HcstackCOMMON                   cstackCOMMON 0000
__HdataBANK0                      dataBANK0    0000
__HdataBANK1                      dataBANK1    0000
__Heeprom_data                    eeprom_data  0000
__Hend_init                       end_init     0013
__Hfunctab                        functab      0000
__HidataBANK0                     idataBANK0   0000
__HidataBANK1                     idataBANK1   0000
__Hidloc                          idloc        0000
__Hinit                           init         0010
__Hintentry                       intentry     0010
__Hmaintext                       maintext     0000
__Hpowerup                        powerup      0000
__Hram                            ram          0000
__Hreset_vec                      reset_vec    0003
__Hsfr0                           sfr0         0000
__Hsfr1                           sfr1         0000
__Hsfr2                           sfr2         0000
__Hsfr3                           sfr3         0000
__Hspace_0                        (abs)        2008
__Hspace_1                        (abs)        019A
__Hspace_2                        (abs)        0000
__Hspace_3                        (abs)        0000
__Hstack                          stack        0000
__Hstrings                        strings      0000
__Htext                           text         0000
__Labs1                           abs1         0000
__Lbank0                          bank0        0000
__Lbank1                          bank1        0000
__Lbank2                          bank2        0000
__Lbank3                          bank3        0000
__LbssBANK0                       bssBANK0     0000
__LbssBANK1                       bssBANK1     0000
__Lcinit                          cinit        0013
__Lclrtext                        clrtext      0000
__Lcode                           code         0000
__Lcommon                         common       0000
__Lconfig                         config       2007
__LcstackBANK0                    cstackBANK0  0000
__LcstackBANK3                    cstackBANK3  0000
__LcstackCOMMON                   cstackCOMMON 0000
__LdataBANK0                      dataBANK0    0000
__LdataBANK1                      dataBANK1    0000
__Leeprom_data                    eeprom_data  0000
__Lend_init                       end_init     0010
__Lfunctab                        functab      0000
__LidataBANK0                     idataBANK0   0000
__LidataBANK1                     idataBANK1   0000
__Lidloc                          idloc        0000
__Linit                           init         0010
__Lintentry                       intentry     0004
__Lmaintext                       maintext     0000
__Lpowerup                        powerup      0000
__Lram                            ram          0000
__Lreset_vec                      reset_vec    0000
__Lsfr0                           sfr0         0000
__Lsfr1                           sfr1         0000
__Lsfr2                           sfr2         0000
__Lsfr3                           sfr3         0000
__Lspace_0                        (abs)        0000
__Lspace_1                        (abs)        0000
__Lspace_2                        (abs)        0000
__Lspace_3                        (abs)        0000
__Lstack                          stack        0000
__Lstrings                        strings      0000
__Ltext                           text         0000
__S0                              (abs)        2008
__S1                              (abs)        019A
__S2                              (abs)        0000
__S3                              (abs)        0000
___aldiv                          text12       0F63
___aldiv@counter                  cstackBANK0  002D
___aldiv@dividend                 cstackBANK0  0028
___aldiv@divisor                  cstackBANK0  0024
___aldiv@quotient                 cstackBANK0  002F
___aldiv@sign                     cstackBANK0  002E
___awdiv                          text21       0E1E
___awdiv@counter                  cstackBANK0  0044
___awdiv@dividend                 cstackBANK0  0041
___awdiv@divisor                  cstackBANK0  003F
___awdiv@quotient                 cstackBANK0  0046
___awdiv@sign                     cstackBANK0  0045
___awmod                          text20       0C9D
___awmod@counter                  cstackBANK0  003D
___awmod@dividend                 cstackBANK0  003A
___awmod@divisor                  cstackBANK0  0038
___awmod@sign                     cstackBANK0  003E
___bmul                           text19       0A51
___bmul@multiplicand              cstackBANK0  0024
___bmul@multiplier                cstackBANK0  0027
___bmul@product                   cstackBANK0  0026
___int_sp                         stack        0000
___latbits                        (abs)        0002
___lmul                           text5        0B61
___lmul@multiplicand              cstackBANK0  0028
___lmul@multiplier                cstackBANK0  0024
___lmul@product                   cstackBANK0  002D
___sp                             stack        0000
___stackhi                        (abs)        0000
___stacklo                        (abs)        0000
___wmul                           text7        0A8E
___wmul@multiplicand              cstackBANK0  0026
___wmul@multiplier                cstackBANK0  0024
___wmul@product                   cstackBANK0  0028
__end_of_ADC_Read                 text22       0A8E
__end_of_BuildByte                text3        065C
__end_of_Conteggio                text25       0BF5
__end_of_GetDigits                text18       0594
__end_of_GetTime                  text16       0B61
__end_of_ISR                      text23       0DB9
__end_of_SetDefaultTimers         text17       0713
__end_of_SetDisplay               text14       0C9D
__end_of_SetReceivedTimes         text15       0D58
__end_of_ShowDigitsOnDisplay      text13       07C0
__end_of_UART_Init                text11       07FA
__end_of_UART_Read                text26       0A33
__end_of_UART_TxChar              text2        0A3E
__end_of_UpdateTimes              text10       0EF2
__end_of___aldiv                  text12       1000
__end_of___awdiv                  text21       0E87
__end_of___awmod                  text20       0CF8
__end_of___bmul                   text19       0A68
__end_of___lmul                   text5        0BA9
__end_of___wmul                   text7        0AB5
__end_of__initialization          cinit        0057
__end_of__stringtab               strings      0806
__end_of_conteggioVeicoli         text24       0E1E
__end_of_display                  strings      0811
__end_of_init_ADC                 text9        0A51
__end_of_luciSemaforo             text8        0C48
__end_of_main                     maintext     04C7
__end_of_map                      text6        0B1B
__end_of_n_semafori               strings      0812
__end_of_rand                     text4        0F63
__end_of_sendByte                 text1        0AE6
__initialization                  cinit        0013
__pbssBANK0                       bssBANK0     005B
__pbssBANK1                       bssBANK1     00A0
__pcstackBANK0                    cstackBANK0  0020
__pcstackBANK3                    cstackBANK3  0190
__pcstackCOMMON                   cstackCOMMON 0070
__pdataBANK0                      dataBANK0    0062
__pdataBANK1                      dataBANK1    00EB
__pidataBANK0                     idataBANK0   07FA
__pidataBANK1                     idataBANK1   0A1E
__pintentry                       intentry     0004
__pmaintext                       maintext     005B
__pstrings                        strings      0800
__ptext1                          text1        0AB5
__ptext10                         text10       0E87
__ptext11                         text11       07C0
__ptext12                         text12       0F63
__ptext13                         text13       0713
__ptext14                         text14       0C48
__ptext15                         text15       0CF8
__ptext16                         text16       0B1B
__ptext17                         text17       065C
__ptext18                         text18       04C7
__ptext19                         text19       0A51
__ptext2                          text2        0A33
__ptext20                         text20       0C9D
__ptext21                         text21       0E1E
__ptext22                         text22       0A68
__ptext23                         text23       0D58
__ptext24                         text24       0DB9
__ptext25                         text25       0BA9
__ptext26                         text26       0A2A
__ptext3                          text3        0594
__ptext4                          text4        0EF2
__ptext5                          text5        0B61
__ptext6                          text6        0AE6
__ptext7                          text7        0A8E
__ptext8                          text8        0BF5
__ptext9                          text9        0A3E
__size_of_ADC_Read                (abs)        0000
__size_of_BuildByte               (abs)        0000
__size_of_Conteggio               (abs)        0000
__size_of_GetDigits               (abs)        0000
__size_of_GetTime                 (abs)        0000
__size_of_ISR                     (abs)        0000
__size_of_SetDefaultTimers        (abs)        0000
__size_of_SetDisplay              (abs)        0000
__size_of_SetReceivedTimes        (abs)        0000
__size_of_ShowDigitsOnDisplay     (abs)        0000
__size_of_UART_Init               (abs)        0000
__size_of_UART_Read               (abs)        0000
__size_of_UART_TxChar             (abs)        0000
__size_of_UpdateTimes             (abs)        0000
__size_of___aldiv                 (abs)        0000
__size_of___awdiv                 (abs)        0000
__size_of___awmod                 (abs)        0000
__size_of___bmul                  (abs)        0000
__size_of___lmul                  (abs)        0000
__size_of___wmul                  (abs)        0000
__size_of_conteggioVeicoli        (abs)        0000
__size_of_init_ADC                (abs)        0000
__size_of_luciSemaforo            (abs)        0000
__size_of_main                    (abs)        0000
__size_of_map                     (abs)        0000
__size_of_rand                    (abs)        0000
__size_of_sendByte                (abs)        0000
__stringbase                      strings      0805
__stringtab                       strings      0800
_car                              bssBANK1     00DD
_conteggioVeicoli                 text24       0DB9
_count                            bssBANK1     00A8
_count_lux                        bssBANK0     005C
_cycled                           bssBANK0     005E
_dataFromGateway                  bssBANK1     00AE
_dataFromGatewayIndex             bssBANK0     005B
_digits0                          bssBANK1     00E8
_digits1                          bssBANK1     00E5
_disp                             bssBANK0     005D
_display                          strings      0806
_init_ADC                         text9        0A3E
_luciSemaforo                     text8        0BF5
_main                             maintext     005B
_map                              text6        0AE6
_motorcycle                       bssBANK1     00E1
_pressione                        bssBANK1     00AA
_rand                             text4        0EF2
_randx                            dataBANK1    00EB
_readGateway                      bssBANK0     0060
_readGatewayDone                  bssBANK0     0061
_s0                               bssBANK1     00CB
_s1                               bssBANK1     00BD
_secondPassed                     bssBANK0     005F
_sendByte                         text1        0AB5
_temp                             bssBANK1     00AC
_time                             bssBANK1     00A4
_timerReadFromGateway             bssBANK1     00AD
_truck                            bssBANK1     00D9
_umidita                          bssBANK1     00AB
btemp                             (abs)        007E
clear_ram0                        clrtext      0A22
conteggioVeicoli@i                cstackCOMMON 007D
end_of_initialization             cinit        0057
interrupt_function                intentry     0004
intlevel0                         functab      0000
intlevel1                         functab      0000
intlevel2                         functab      0000
intlevel3                         functab      0000
intlevel4                         functab      0000
intlevel5                         functab      0000
luciSemaforo@index                cstackBANK0  0027
luciSemaforo@lux                  cstackBANK0  0024
main@i                            cstackBANK3  0199
main@i_480                        cstackBANK3  0195
main@i_481                        cstackBANK3  0193
main@i_483                        cstackBANK3  0194
main@i_485                        cstackBANK3  0198
main@lux_select                   cstackBANK3  0197
map@in_max                        cstackBANK0  004C
map@in_min                        cstackBANK0  004A
map@out_max                       cstackBANK0  0050
map@out_min                       cstackBANK0  004E
map@x                             cstackBANK0  0048
reset_vec                         reset_vec    0000
saved_w                           (abs)        007E
sendByte@byte0                    cstackBANK0  003D
sendByte@byte1                    cstackBANK0  0038
sendByte@i                        cstackBANK0  003F
sendByte@txByte                   cstackBANK0  003E
sendByte@valore                   cstackBANK0  0039
start                             init         0010
start_initialization              cinit        0013
wtemp0                            (abs)        007E


FUNCTION INFORMATION:

 *************** function _main *****************
 Defined at:
		line 136 in file "main.c"
 Parameters:    Size  Location     Type
		None
 Auto vars:     Size  Location     Type
  lux_select      1    7[BANK3 ] unsigned char 
  randomTruck     1    0        unsigned char 
  randomCar       1    0        unsigned char 
  randomMoto      1    0        unsigned char 
  i               1    4[BANK3 ] unsigned char 
  i               1    3[BANK3 ] unsigned char 
  i               2    5[BANK3 ] int 
  i               1    9[BANK3 ] unsigned char 
  i               1    8[BANK3 ] unsigned char 
 Return value:  Size  Location     Type
                  1    wreg      void 
 Registers used:
		wreg, fsr0l, fsr0h, status,2, status,0, btemp+1, pclath, cstack
 Tracked objects:
		On entry : 
		On exit  : 
		Unchanged: 
 Data sizes:     COMMON   BANK0   BANK1   BANK3   BANK2
      Params:         0       0       0       0       0
      Locals:         0       0       0      10       0
      Temps:          0       9       0       0       0
      Totals:         0       9       0      10       0
Total ram usage:       19 bytes
 Hardware stack levels required when called:    5
 This function calls:
		_ADC_Read
		_GetDigits
		_SetDefaultTimers
		_SetReceivedTimes
		_ShowDigitsOnDisplay
		_UART_Init
		_UpdateTimes
		___awmod
		_init_ADC
		_luciSemaforo
		_map
		_rand
		_sendByte
 This function is called by:
		Startup code after reset
 This function uses a non-reentrant model


 *************** function _sendByte *****************
 Defined at:
		line 390 in file "main.c"
 Parameters:    Size  Location     Type
  byte0           1    wreg     unsigned char 
  byte1           1   24[BANK0 ] unsigned char 
  valore          1   25[BANK0 ] unsigned char 
 Auto vars:     Size  Location     Type
  byte0           1   29[BANK0 ] unsigned char 
  i               1   31[BANK0 ] unsigned char 
  txByte          1   30[BANK0 ] PTR unsigned char 
		 -> BuildByte@txByte(5), 
 Return value:  Size  Location     Type
                  1    wreg      void 
 Registers used:
		wreg, fsr0l, fsr0h, status,2, status,0, btemp+1, pclath, cstack
 Tracked objects:
		On entry : 
		On exit  : 
		Unchanged: 
 Data sizes:     COMMON   BANK0   BANK1   BANK3   BANK2
      Params:         0       2       0       0       0
      Locals:         0       3       0       0       0
      Temps:          0       3       0       0       0
      Totals:         0       8       0       0       0
Total ram usage:        8 bytes
 Hardware stack levels used:    1
 Hardware stack levels required when called:    4
 This function calls:
		_BuildByte
		_UART_TxChar
 This function is called by:
		_main
 This function uses a non-reentrant model


 *************** function _UART_TxChar *****************
 Defined at:
		line 365 in file "main.c"
 Parameters:    Size  Location     Type
  ch              1    wreg     unsigned char 
 Auto vars:     Size  Location     Type
  ch              1    4[BANK0 ] unsigned char 
 Return value:  Size  Location     Type
                  1    wreg      void 
 Registers used:
		wreg
 Tracked objects:
		On entry : 
		On exit  : 
		Unchanged: 
 Data sizes:     COMMON   BANK0   BANK1   BANK3   BANK2
      Params:         0       0       0       0       0
      Locals:         0       1       0       0       0
      Temps:          0       0       0       0       0
      Totals:         0       1       0       0       0
Total ram usage:        1 bytes
 Hardware stack levels used:    1
 Hardware stack levels required when called:    3
 This function calls:
		Nothing
 This function is called by:
		_sendByte
		_UART_Write_Text
 This function uses a non-reentrant model


 *************** function _BuildByte *****************
 Defined at:
		line 2 in file "./CustomLib/Serial.h"
 Parameters:    Size  Location     Type
  byte0           1    wreg     unsigned char 
  byte1           1    4[BANK0 ] unsigned char 
  valore          1    5[BANK0 ] unsigned char 
 Auto vars:     Size  Location     Type
  byte0           1    8[BANK0 ] unsigned char 
  y               2   18[BANK0 ] int 
  y               2   16[BANK0 ] int 
  i               2   22[BANK0 ] int 
  i               2   20[BANK0 ] int 
  txByte          5    9[BANK0 ] unsigned char [5]
  sommaColumn     1   15[BANK0 ] unsigned char 
  sommaRow        1   14[BANK0 ] unsigned char 
 Return value:  Size  Location     Type
                  1    wreg      PTR unsigned char 
 Registers used:
		wreg, fsr0l, fsr0h, status,2, status,0, btemp+1
 Tracked objects:
		On entry : 
		On exit  : 
		Unchanged: 
 Data sizes:     COMMON   BANK0   BANK1   BANK3   BANK2
      Params:         0       2       0       0       0
      Locals:         0      16       0       0       0
      Temps:          0       2       0       0       0
      Totals:         0      20       0       0       0
Total ram usage:       20 bytes
 Hardware stack levels used:    1
 Hardware stack levels required when called:    3
 This function calls:
		Nothing
 This function is called by:
		_sendByte
 This function uses a non-reentrant model


 *************** function _rand *****************
 Defined at:
		line 12 in file "C:\Program Files (x86)\Microchip\xc8\v2.10\pic\sources\c90\common\rand.c"
 Parameters:    Size  Location     Type
		None
 Auto vars:     Size  Location     Type
		None
 Return value:  Size  Location     Type
                  2   17[BANK0 ] int 
 Registers used:
		wreg, status,2, status,0, pclath, cstack
 Tracked objects:
		On entry : 
		On exit  : 
		Unchanged: 
 Data sizes:     COMMON   BANK0   BANK1   BANK3   BANK2
      Params:         0       2       0       0       0
      Locals:         0       0       0       0       0
      Temps:          0       5       0       0       0
      Totals:         0       7       0       0       0
Total ram usage:        7 bytes
 Hardware stack levels used:    1
 Hardware stack levels required when called:    4
 This function calls:
		___lmul
 This function is called by:
		_main
 This function uses a non-reentrant model


 *************** function ___lmul *****************
 Defined at:
		line 15 in file "C:\Program Files (x86)\Microchip\xc8\v2.10\pic\sources\c90\common\Umul32.c"
 Parameters:    Size  Location     Type
  multiplier      4    4[BANK0 ] unsigned long 
  multiplicand    4    8[BANK0 ] unsigned long 
 Auto vars:     Size  Location     Type
  product         4   13[BANK0 ] unsigned long 
 Return value:  Size  Location     Type
                  4    4[BANK0 ] unsigned long 
 Registers used:
		wreg, status,2, status,0
 Tracked objects:
		On entry : 
		On exit  : 
		Unchanged: 
 Data sizes:     COMMON   BANK0   BANK1   BANK3   BANK2
      Params:         0       8       0       0       0
      Locals:         0       4       0       0       0
      Temps:          0       1       0       0       0
      Totals:         0      13       0       0       0
Total ram usage:       13 bytes
 Hardware stack levels used:    1
 Hardware stack levels required when called:    3
 This function calls:
		Nothing
 This function is called by:
		_rand
 This function uses a non-reentrant model


 *************** function _map *****************
 Defined at:
		line 127 in file "./CustomLib/TrafficLight.h"
 Parameters:    Size  Location     Type
  x               2   40[BANK0 ] int 
  in_min          2   42[BANK0 ] int 
  in_max          2   44[BANK0 ] int 
  out_min         2   46[BANK0 ] int 
  out_max         2   48[BANK0 ] int 
 Auto vars:     Size  Location     Type
		None
 Return value:  Size  Location     Type
                  2   40[BANK0 ] int 
 Registers used:
		wreg, status,2, status,0, pclath, cstack
 Tracked objects:
		On entry : 
		On exit  : 
		Unchanged: 
 Data sizes:     COMMON   BANK0   BANK1   BANK3   BANK2
      Params:         0      10       0       0       0
      Locals:         0       0       0       0       0
      Temps:          0       0       0       0       0
      Totals:         0      10       0       0       0
Total ram usage:       10 bytes
 Hardware stack levels used:    1
 Hardware stack levels required when called:    4
 This function calls:
		___awdiv
		___wmul
 This function is called by:
		_main
 This function uses a non-reentrant model


 *************** function ___wmul *****************
 Defined at:
		line 15 in file "C:\Program Files (x86)\Microchip\xc8\v2.10\pic\sources\c90\common\Umul16.c"
 Parameters:    Size  Location     Type
  multiplier      2    4[BANK0 ] unsigned int 
  multiplicand    2    6[BANK0 ] unsigned int 
 Auto vars:     Size  Location     Type
  product         2    8[BANK0 ] unsigned int 
 Return value:  Size  Location     Type
                  2    4[BANK0 ] unsigned int 
 Registers used:
		wreg, status,2, status,0
 Tracked objects:
		On entry : 
		On exit  : 
		Unchanged: 
 Data sizes:     COMMON   BANK0   BANK1   BANK3   BANK2
      Params:         0       4       0       0       0
      Locals:         0       2       0       0       0
      Temps:          0       0       0       0       0
      Totals:         0       6       0       0       0
Total ram usage:        6 bytes
 Hardware stack levels used:    1
 Hardware stack levels required when called:    3
 This function calls:
		Nothing
 This function is called by:
		_map
 This function uses a non-reentrant model


 *************** function _luciSemaforo *****************
 Defined at:
		line 422 in file "main.c"
 Parameters:    Size  Location     Type
  index           1    wreg     unsigned char 
  lux             1    4[BANK0 ] unsigned char 
 Auto vars:     Size  Location     Type
  index           1    7[BANK0 ] unsigned char 
 Return value:  Size  Location     Type
                  1    wreg      void 
 Registers used:
		wreg, fsr0l, fsr0h, status,2, status,0
 Tracked objects:
		On entry : 
		On exit  : 
		Unchanged: 
 Data sizes:     COMMON   BANK0   BANK1   BANK3   BANK2
      Params:         0       1       0       0       0
      Locals:         0       1       0       0       0
      Temps:          0       2       0       0       0
      Totals:         0       4       0       0       0
Total ram usage:        4 bytes
 Hardware stack levels used:    1
 Hardware stack levels required when called:    3
 This function calls:
		Nothing
 This function is called by:
		_main
 This function uses a non-reentrant model


 *************** function _init_ADC *****************
 Defined at:
		line 334 in file "main.c"
 Parameters:    Size  Location     Type
		None
 Auto vars:     Size  Location     Type
		None
 Return value:  Size  Location     Type
                  1    wreg      void 
 Registers used:
		wreg, status,2
 Tracked objects:
		On entry : 
		On exit  : 
		Unchanged: 
 Data sizes:     COMMON   BANK0   BANK1   BANK3   BANK2
      Params:         0       0       0       0       0
      Locals:         0       0       0       0       0
      Temps:          0       1       0       0       0
      Totals:         0       1       0       0       0
Total ram usage:        1 bytes
 Hardware stack levels used:    1
 Hardware stack levels required when called:    3
 This function calls:
		Nothing
 This function is called by:
		_main
 This function uses a non-reentrant model


 *************** function _UpdateTimes *****************
 Defined at:
		line 4 in file "./CustomLib/TrafficLight.h"
 Parameters:    Size  Location     Type
  _semafori       1    wreg     PTR PTR struct .
		 -> Semafori(2), 
 Auto vars:     Size  Location     Type
  _semafori       1   14[BANK0 ] PTR PTR struct .
		 -> Semafori(2), 
  i               1   15[BANK0 ] unsigned char 
  l               1   16[BANK0 ] unsigned char 
 Return value:  Size  Location     Type
                  1    wreg      void 
 Registers used:
		wreg, fsr0l, fsr0h, status,2, status,0
 Tracked objects:
		On entry : 
		On exit  : 
		Unchanged: 
 Data sizes:     COMMON   BANK0   BANK1   BANK3   BANK2
      Params:         0       0       0       0       0
      Locals:         0       3       0       0       0
      Temps:          0      10       0       0       0
      Totals:         0      13       0       0       0
Total ram usage:       13 bytes
 Hardware stack levels used:    1
 Hardware stack levels required when called:    3
 This function calls:
		Nothing
 This function is called by:
		_main
 This function uses a non-reentrant model


 *************** function _UART_Init *****************
 Defined at:
		line 353 in file "main.c"
 Parameters:    Size  Location     Type
  baudrate        2   19[BANK0 ] int 
 Auto vars:     Size  Location     Type
		None
 Return value:  Size  Location     Type
                  1    wreg      void 
 Registers used:
		wreg, status,2, status,0, pclath, cstack
 Tracked objects:
		On entry : 
		On exit  : 
		Unchanged: 
 Data sizes:     COMMON   BANK0   BANK1   BANK3   BANK2
      Params:         0       2       0       0       0
      Locals:         0       0       0       0       0
      Temps:          0       4       0       0       0
      Totals:         0       6       0       0       0
Total ram usage:        6 bytes
 Hardware stack levels used:    1
 Hardware stack levels required when called:    4
 This function calls:
		___aldiv
 This function is called by:
		_main
 This function uses a non-reentrant model


 *************** function ___aldiv *****************
 Defined at:
		line 5 in file "C:\Program Files (x86)\Microchip\xc8\v2.10\pic\sources\c90\common\aldiv.c"
 Parameters:    Size  Location     Type
  divisor         4    4[BANK0 ] long 
  dividend        4    8[BANK0 ] long 
 Auto vars:     Size  Location     Type
  quotient        4   15[BANK0 ] long 
  sign            1   14[BANK0 ] unsigned char 
  counter         1   13[BANK0 ] unsigned char 
 Return value:  Size  Location     Type
                  4    4[BANK0 ] long 
 Registers used:
		wreg, status,2, status,0
 Tracked objects:
		On entry : 
		On exit  : 
		Unchanged: 
 Data sizes:     COMMON   BANK0   BANK1   BANK3   BANK2
      Params:         0       8       0       0       0
      Locals:         0       6       0       0       0
      Temps:          0       1       0       0       0
      Totals:         0      15       0       0       0
Total ram usage:       15 bytes
 Hardware stack levels used:    1
 Hardware stack levels required when called:    3
 This function calls:
		Nothing
 This function is called by:
		_UART_Init
 This function uses a non-reentrant model


 *************** function _ShowDigitsOnDisplay *****************
 Defined at:
		line 495 in file "main.c"
 Parameters:    Size  Location     Type
		None
 Auto vars:     Size  Location     Type
  display_inde    1   33[BANK0 ] unsigned char 
 Return value:  Size  Location     Type
                  1    wreg      void 
 Registers used:
		wreg, fsr0l, fsr0h, status,2, status,0, pclath, cstack
 Tracked objects:
		On entry : 
		On exit  : 
		Unchanged: 
 Data sizes:     COMMON   BANK0   BANK1   BANK3   BANK2
      Params:         0       0       0       0       0
      Locals:         0       1       0       0       0
      Temps:          0       2       0       0       0
      Totals:         0       3       0       0       0
Total ram usage:        3 bytes
 Hardware stack levels used:    1
 Hardware stack levels required when called:    4
 This function calls:
		_SetDisplay
		___awmod
 This function is called by:
		_main
 This function uses a non-reentrant model


 *************** function _SetDisplay *****************
 Defined at:
		line 470 in file "main.c"
 Parameters:    Size  Location     Type
  display_inde    1    wreg     unsigned char 
  d1              1    4[BANK0 ] unsigned char 
  d2              1    5[BANK0 ] unsigned char 
  d3              1    6[BANK0 ] unsigned char 
  value           1    7[BANK0 ] unsigned char 
 Auto vars:     Size  Location     Type
  display_inde    1   10[BANK0 ] unsigned char 
 Return value:  Size  Location     Type
                  1    wreg      void 
 Registers used:
		wreg, fsr0l, fsr0h, status,2, status,0
 Tracked objects:
		On entry : 
		On exit  : 
		Unchanged: 
 Data sizes:     COMMON   BANK0   BANK1   BANK3   BANK2
      Params:         0       4       0       0       0
      Locals:         0       1       0       0       0
      Temps:          0       2       0       0       0
      Totals:         0       7       0       0       0
Total ram usage:        7 bytes
 Hardware stack levels used:    1
 Hardware stack levels required when called:    3
 This function calls:
		Nothing
 This function is called by:
		_ShowDigitsOnDisplay
 This function uses a non-reentrant model


 *************** function _SetReceivedTimes *****************
 Defined at:
		line 86 in file "./CustomLib/TrafficLight.h"
 Parameters:    Size  Location     Type
  _dataFromGat    1    wreg     PTR unsigned char 
		 -> dataFromGateway(15), 
  _semafori       1   12[BANK0 ] PTR PTR struct .
		 -> Semafori(2), 
 Auto vars:     Size  Location     Type
  _dataFromGat    1   19[BANK0 ] PTR unsigned char 
		 -> dataFromGateway(15), 
  index           1   20[BANK0 ] unsigned char 
  colorId         1   18[BANK0 ] unsigned char 
  semaforoId      1   17[BANK0 ] unsigned char 
  i               1   21[BANK0 ] unsigned char 
 Return value:  Size  Location     Type
                  1    wreg      void 
 Registers used:
		wreg, fsr0l, fsr0h, status,2, status,0, btemp+1, pclath, cstack
 Tracked objects:
		On entry : 
		On exit  : 
		Unchanged: 
 Data sizes:     COMMON   BANK0   BANK1   BANK3   BANK2
      Params:         0       1       0       0       0
      Locals:         0       5       0       0       0
      Temps:          0       4       0       0       0
      Totals:         0      10       0       0       0
Total ram usage:       10 bytes
 Hardware stack levels used:    1
 Hardware stack levels required when called:    4
 This function calls:
		_GetTime
		___bmul
 This function is called by:
		_main
 This function uses a non-reentrant model


 *************** function _GetTime *****************
 Defined at:
		line 37 in file "./CustomLib/TrafficLight.h"
 Parameters:    Size  Location     Type
  index           1    wreg     unsigned char 
  _dataFromGat    1    4[BANK0 ] PTR unsigned char 
		 -> dataFromGateway(15), 
 Auto vars:     Size  Location     Type
  index           1    8[BANK0 ] unsigned char 
  tmp             2   10[BANK0 ] int 
  shortInt        1    9[BANK0 ] struct .
 Return value:  Size  Location     Type
                  2    4[BANK0 ] int 
 Registers used:
		wreg, fsr0l, fsr0h, status,2, status,0, btemp+1
 Tracked objects:
		On entry : 
		On exit  : 
		Unchanged: 
 Data sizes:     COMMON   BANK0   BANK1   BANK3   BANK2
      Params:         0       2       0       0       0
      Locals:         0       4       0       0       0
      Temps:          0       2       0       0       0
      Totals:         0       8       0       0       0
Total ram usage:        8 bytes
 Hardware stack levels used:    1
 Hardware stack levels required when called:    3
 This function calls:
		Nothing
 This function is called by:
		_SetReceivedTimes
 This function uses a non-reentrant model


 *************** function _SetDefaultTimers *****************
 Defined at:
		line 56 in file "./CustomLib/TrafficLight.h"
 Parameters:    Size  Location     Type
  rosso           2    4[BANK0 ] int 
  verde           2    6[BANK0 ] int 
  giallo          2    8[BANK0 ] int 
  _semafori       1   10[BANK0 ] PTR PTR struct .
		 -> Semafori(2), 
 Auto vars:     Size  Location     Type
  i               1   15[BANK0 ] unsigned char 
  l               1   14[BANK0 ] unsigned char 
 Return value:  Size  Location     Type
                  1    wreg      void 
 Registers used:
		wreg, fsr0l, fsr0h, status,2, status,0
 Tracked objects:
		On entry : 
		On exit  : 
		Unchanged: 
 Data sizes:     COMMON   BANK0   BANK1   BANK3   BANK2
      Params:         0       7       0       0       0
      Locals:         0       2       0       0       0
      Temps:          0       3       0       0       0
      Totals:         0      12       0       0       0
Total ram usage:       12 bytes
 Hardware stack levels used:    1
 Hardware stack levels required when called:    3
 This function calls:
		Nothing
 This function is called by:
		_main
 This function uses a non-reentrant model


 *************** function _GetDigits *****************
 Defined at:
		line 98 in file "./CustomLib/TrafficLight.h"
 Parameters:    Size  Location     Type
  _digits         1    wreg     PTR PTR struct .
		 -> DigitsArr(2), 
  index           1   40[BANK0 ] unsigned char 
  Time            2   41[BANK0 ] int 
 Auto vars:     Size  Location     Type
  _digits         1   48[BANK0 ] PTR PTR struct .
		 -> DigitsArr(2), 
 Return value:  Size  Location     Type
                  1    wreg      void 
 Registers used:
		wreg, fsr0l, fsr0h, status,2, status,0, btemp+1, pclath, cstack
 Tracked objects:
		On entry : 
		On exit  : 
		Unchanged: 
 Data sizes:     COMMON   BANK0   BANK1   BANK3   BANK2
      Params:         0       3       0       0       0
      Locals:         0       3       0       0       0
      Temps:          0       3       0       0       0
      Totals:         0       9       0       0       0
Total ram usage:        9 bytes
 Hardware stack levels used:    1
 Hardware stack levels required when called:    4
 This function calls:
		___awdiv
		___awmod
		___bmul
 This function is called by:
		_main
 This function uses a non-reentrant model


 *************** function ___bmul *****************
 Defined at:
		line 4 in file "C:\Program Files (x86)\Microchip\xc8\v2.10\pic\sources\c90\common\Umul8.c"
 Parameters:    Size  Location     Type
  multiplier      1    wreg     unsigned char 
  multiplicand    1    4[BANK0 ] unsigned char 
 Auto vars:     Size  Location     Type
  multiplier      1    7[BANK0 ] unsigned char 
  product         1    6[BANK0 ] unsigned char 
 Return value:  Size  Location     Type
                  1    wreg      unsigned char 
 Registers used:
		wreg, status,2, status,0
 Tracked objects:
		On entry : 
		On exit  : 
		Unchanged: 
 Data sizes:     COMMON   BANK0   BANK1   BANK3   BANK2
      Params:         0       1       0       0       0
      Locals:         0       2       0       0       0
      Temps:          0       1       0       0       0
      Totals:         0       4       0       0       0
Total ram usage:        4 bytes
 Hardware stack levels used:    1
 Hardware stack levels required when called:    3
 This function calls:
		Nothing
 This function is called by:
		_SetReceivedTimes
		_GetDigits
 This function uses a non-reentrant model


 *************** function ___awmod *****************
 Defined at:
		line 5 in file "C:\Program Files (x86)\Microchip\xc8\v2.10\pic\sources\c90\common\awmod.c"
 Parameters:    Size  Location     Type
  divisor         2   24[BANK0 ] int 
  dividend        2   26[BANK0 ] int 
 Auto vars:     Size  Location     Type
  sign            1   30[BANK0 ] unsigned char 
  counter         1   29[BANK0 ] unsigned char 
 Return value:  Size  Location     Type
                  2   24[BANK0 ] int 
 Registers used:
		wreg, status,2, status,0
 Tracked objects:
		On entry : 
		On exit  : 
		Unchanged: 
 Data sizes:     COMMON   BANK0   BANK1   BANK3   BANK2
      Params:         0       4       0       0       0
      Locals:         0       2       0       0       0
      Temps:          0       1       0       0       0
      Totals:         0       7       0       0       0
Total ram usage:        7 bytes
 Hardware stack levels used:    1
 Hardware stack levels required when called:    3
 This function calls:
		Nothing
 This function is called by:
		_GetDigits
		_main
		_ShowDigitsOnDisplay
		_ChangeTrafficLight
 This function uses a non-reentrant model


 *************** function ___awdiv *****************
 Defined at:
		line 5 in file "C:\Program Files (x86)\Microchip\xc8\v2.10\pic\sources\c90\common\awdiv.c"
 Parameters:    Size  Location     Type
  divisor         2   31[BANK0 ] int 
  dividend        2   33[BANK0 ] int 
 Auto vars:     Size  Location     Type
  quotient        2   38[BANK0 ] int 
  sign            1   37[BANK0 ] unsigned char 
  counter         1   36[BANK0 ] unsigned char 
 Return value:  Size  Location     Type
                  2   31[BANK0 ] int 
 Registers used:
		wreg, status,2, status,0
 Tracked objects:
		On entry : 
		On exit  : 
		Unchanged: 
 Data sizes:     COMMON   BANK0   BANK1   BANK3   BANK2
      Params:         0       4       0       0       0
      Locals:         0       4       0       0       0
      Temps:          0       1       0       0       0
      Totals:         0       9       0       0       0
Total ram usage:        9 bytes
 Hardware stack levels used:    1
 Hardware stack levels required when called:    3
 This function calls:
		Nothing
 This function is called by:
		_GetDigits
		_map
 This function uses a non-reentrant model


 *************** function _ADC_Read *****************
 Defined at:
		line 343 in file "main.c"
 Parameters:    Size  Location     Type
  canale          1    wreg     unsigned char 
 Auto vars:     Size  Location     Type
  canale          1    7[BANK0 ] unsigned char 
 Return value:  Size  Location     Type
                  2    4[BANK0 ] int 
 Registers used:
		wreg, status,2, status,0
 Tracked objects:
		On entry : 
		On exit  : 
		Unchanged: 
 Data sizes:     COMMON   BANK0   BANK1   BANK3   BANK2
      Params:         0       2       0       0       0
      Locals:         0       1       0       0       0
      Temps:          0       1       0       0       0
      Totals:         0       4       0       0       0
Total ram usage:        4 bytes
 Hardware stack levels used:    1
 Hardware stack levels required when called:    3
 This function calls:
		Nothing
 This function is called by:
		_main
 This function uses a non-reentrant model


 *************** function _ISR *****************
 Defined at:
		line 521 in file "main.c"
 Parameters:    Size  Location     Type
		None
 Auto vars:     Size  Location     Type
		None
 Return value:  Size  Location     Type
                  1    wreg      void 
 Registers used:
		wreg, fsr0l, fsr0h, status,2, status,0, pclath, cstack
 Tracked objects:
		On entry : 
		On exit  : 
		Unchanged: 
 Data sizes:     COMMON   BANK0   BANK1   BANK3   BANK2
      Params:         0       0       0       0       0
      Locals:         0       0       0       0       0
      Temps:          0       4       0       0       0
      Totals:         0       4       0       0       0
Total ram usage:        4 bytes
 Hardware stack levels used:    1
 Hardware stack levels required when called:    2
 This function calls:
		_UART_Read
		_conteggioVeicoli
 This function is called by:
		Interrupt level 1
 This function uses a non-reentrant model


 *************** function _conteggioVeicoli *****************
 Defined at:
		line 401 in file "main.c"
 Parameters:    Size  Location     Type
		None
 Auto vars:     Size  Location     Type
  i               1   13[COMMON] unsigned char 
 Return value:  Size  Location     Type
                  1    wreg      void 
 Registers used:
		wreg, fsr0l, fsr0h, status,2, status,0, pclath, cstack
 Tracked objects:
		On entry : 
		On exit  : 
		Unchanged: 
 Data sizes:     COMMON   BANK0   BANK1   BANK3   BANK2
      Params:         0       0       0       0       0
      Locals:         1       0       0       0       0
      Temps:          4       0       0       0       0
      Totals:         5       0       0       0       0
Total ram usage:        5 bytes
 Hardware stack levels used:    1
 Hardware stack levels required when called:    1
 This function calls:
		_Conteggio
 This function is called by:
		_ISR
 This function uses a non-reentrant model


 *************** function _Conteggio *****************
 Defined at:
		line 111 in file "./CustomLib/TrafficLight.h"
 Parameters:    Size  Location     Type
  _count          2    0[COMMON] unsigned int 
  _motorcycle     1    2[COMMON] PTR unsigned char 
		 -> motorcycle(4), 
  _car            1    3[COMMON] PTR unsigned char 
		 -> car(4), 
  _truck          1    4[COMMON] PTR unsigned char 
		 -> truck(4), 
  index           1    5[COMMON] unsigned char 
 Auto vars:     Size  Location     Type
		None
 Return value:  Size  Location     Type
                  1    wreg      void 
 Registers used:
		wreg, fsr0l, fsr0h, status,2, status,0
 Tracked objects:
		On entry : 
		On exit  : 
		Unchanged: 
 Data sizes:     COMMON   BANK0   BANK1   BANK3   BANK2
      Params:         6       0       0       0       0
      Locals:         0       0       0       0       0
      Temps:          3       0       0       0       0
      Totals:         9       0       0       0       0
Total ram usage:        9 bytes
 Hardware stack levels used:    1
 This function calls:
		Nothing
 This function is called by:
		_conteggioVeicoli
 This function uses a non-reentrant model


 *************** function _UART_Read *****************
 Defined at:
		line 382 in file "main.c"
 Parameters:    Size  Location     Type
		None
 Auto vars:     Size  Location     Type
		None
 Return value:  Size  Location     Type
                  1    wreg      unsigned char 
 Registers used:
		wreg
 Tracked objects:
		On entry : 
		On exit  : 
		Unchanged: 
 Data sizes:     COMMON   BANK0   BANK1   BANK3   BANK2
      Params:         0       0       0       0       0
      Locals:         0       0       0       0       0
      Temps:          0       0       0       0       0
      Totals:         0       0       0       0       0
Total ram usage:        0 bytes
 Hardware stack levels used:    1
 This function calls:
		Nothing
 This function is called by:
		_ISR
 This function uses a non-reentrant model



MODULE INFORMATION

Module		Function		Class		Link	Load	Size
C:\Program Files (x86)\Microchip\xc8\v2.10\pic\sources\c90\common\awdiv.c
		___awdiv       		CODE           	0E1E	0000	106

C:\Program Files (x86)\Microchip\xc8\v2.10\pic\sources\c90\common\awdiv.c estimated size: 106

C:\Program Files (x86)\Microchip\xc8\v2.10\pic\sources\c90\common\Umul16.c
		___wmul        		CODE           	0A8E	0000	40

C:\Program Files (x86)\Microchip\xc8\v2.10\pic\sources\c90\common\Umul16.c estimated size: 40

C:\Program Files (x86)\Microchip\xc8\v2.10\pic\sources\c90\common\Umul8.c
		___bmul        		CODE           	0A51	0000	24

C:\Program Files (x86)\Microchip\xc8\v2.10\pic\sources\c90\common\Umul8.c estimated size: 24

C:\Program Files (x86)\Microchip\xc8\v2.10\pic\sources\c90\common\aldiv.c
		___aldiv       		CODE           	0F63	0000	158

C:\Program Files (x86)\Microchip\xc8\v2.10\pic\sources\c90\common\aldiv.c estimated size: 158

C:\Program Files (x86)\Microchip\xc8\v2.10\pic\sources\c90\common\Umul32.c
		___lmul        		CODE           	0B61	0000	73

C:\Program Files (x86)\Microchip\xc8\v2.10\pic\sources\c90\common\Umul32.c estimated size: 73

./CustomLib/Serial.h
		_BuildByte     		CODE           	0594	0000	201

./CustomLib/Serial.h estimated size: 201

shared
		__stringtab    		STRING         	0800	0000	7
		_display       		STRING         	0806	0000	12
		_n_semafori    		STRING         	0000	0000	0
		__initialization		CODE           	0013	0000	69

shared estimated size: 88

./CustomLib/TrafficLight.h
		_map           		CODE           	0AE6	0000	54
		_SetReceivedTimes		CODE           	0CF8	0000	97
		_GetTime       		CODE           	0B1B	0000	71
		_SetDefaultTimers		CODE           	065C	0000	184
		_UpdateTimes   		CODE           	0E87	0000	108
		_Conteggio     		CODE           	0BA9	0000	77
		_GetDigits     		CODE           	04C7	0000	206

./CustomLib/TrafficLight.h estimated size: 797

C:\Program Files (x86)\Microchip\xc8\v2.10\pic\sources\c90\common\awmod.c
		___awmod       		CODE           	0C9D	0000	92

C:\Program Files (x86)\Microchip\xc8\v2.10\pic\sources\c90\common\awmod.c estimated size: 92

main.c
		_conteggioVeicoli		CODE           	0DB9	0000	102
		_luciSemaforo  		CODE           	0BF5	0000	84
		_ISR           		CODE           	0D58	0000	98
		_UART_Read     		CODE           	0A2A	0000	10
		_UART_Init     		CODE           	07C0	0000	59
		_main          		CODE           	005B	0000	1133
		_ShowDigitsOnDisplay		CODE           	0713	0000	174
		_init_ADC      		CODE           	0A3E	0000	20
		_sendByte      		CODE           	0AB5	0000	50
		_SetDisplay    		CODE           	0C48	0000	86
		_ADC_Read      		CODE           	0A68	0000	39
		_UART_TxChar   		CODE           	0A33	0000	12

main.c estimated size: 1867

C:\Program Files (x86)\Microchip\xc8\v2.10\pic\sources\c90\common\rand.c
		_rand          		CODE           	0EF2	0000	114

C:\Program Files (x86)\Microchip\xc8\v2.10\pic\sources\c90\common\rand.c estimated size: 114

